
synth.elf:     file format elf32-littlearm

Sections:
Idx Name          Size      VMA       LMA       File off  Algn
  0 .isr_vector   00000188  08000000  08000000  00010000  2**0
                  CONTENTS, ALLOC, LOAD, READONLY, DATA
  1 .text         00003454  08000188  08000188  00010188  2**2
                  CONTENTS, ALLOC, LOAD, READONLY, CODE
  2 .rodata       000081a0  080035dc  080035dc  000135dc  2**1
                  CONTENTS, ALLOC, LOAD, READONLY, DATA
  3 .ARM          00000008  0800b77c  0800b77c  0001b77c  2**2
                  CONTENTS, ALLOC, LOAD, READONLY, DATA
  4 .init_array   00000004  0800b784  0800b784  0001b784  2**2
                  CONTENTS, ALLOC, LOAD, DATA
  5 .fini_array   00000004  0800b788  0800b788  0001b788  2**2
                  CONTENTS, ALLOC, LOAD, DATA
  6 .data         0000000c  20000000  0800b78c  00020000  2**2
                  CONTENTS, ALLOC, LOAD, DATA
  7 .ccmram       00000000  10000000  10000000  0002000c  2**0
                  CONTENTS
  8 .bss          00000240  2000000c  2000000c  0002000c  2**2
                  ALLOC
  9 ._user_heap_stack 00000600  2000024c  2000024c  0002000c  2**0
                  ALLOC
 10 .ARM.attributes 00000030  00000000  00000000  0002000c  2**0
                  CONTENTS, READONLY
 11 .comment      0000007c  00000000  00000000  0002003c  2**0
                  CONTENTS, READONLY
 12 .debug_frame  000001cc  00000000  00000000  000200b8  2**2
                  CONTENTS, READONLY, DEBUGGING

Disassembly of section .text:

08000188 <__do_global_dtors_aux>:
 8000188:	b510      	push	{r4, lr}
 800018a:	4c05      	ldr	r4, [pc, #20]	; (80001a0 <__do_global_dtors_aux+0x18>)
 800018c:	7823      	ldrb	r3, [r4, #0]
 800018e:	b933      	cbnz	r3, 800019e <__do_global_dtors_aux+0x16>
 8000190:	4b04      	ldr	r3, [pc, #16]	; (80001a4 <__do_global_dtors_aux+0x1c>)
 8000192:	b113      	cbz	r3, 800019a <__do_global_dtors_aux+0x12>
 8000194:	4804      	ldr	r0, [pc, #16]	; (80001a8 <__do_global_dtors_aux+0x20>)
 8000196:	f3af 8000 	nop.w
 800019a:	2301      	movs	r3, #1
 800019c:	7023      	strb	r3, [r4, #0]
 800019e:	bd10      	pop	{r4, pc}
 80001a0:	2000000c 	.word	0x2000000c
 80001a4:	00000000 	.word	0x00000000
 80001a8:	080035c4 	.word	0x080035c4

080001ac <frame_dummy>:
 80001ac:	b508      	push	{r3, lr}
 80001ae:	4b03      	ldr	r3, [pc, #12]	; (80001bc <frame_dummy+0x10>)
 80001b0:	b11b      	cbz	r3, 80001ba <frame_dummy+0xe>
 80001b2:	4903      	ldr	r1, [pc, #12]	; (80001c0 <frame_dummy+0x14>)
 80001b4:	4803      	ldr	r0, [pc, #12]	; (80001c4 <frame_dummy+0x18>)
 80001b6:	f3af 8000 	nop.w
 80001ba:	bd08      	pop	{r3, pc}
 80001bc:	00000000 	.word	0x00000000
 80001c0:	20000010 	.word	0x20000010
 80001c4:	080035c4 	.word	0x080035c4

080001c8 <__aeabi_drsub>:
 80001c8:	f081 4100 	eor.w	r1, r1, #2147483648	; 0x80000000
 80001cc:	e002      	b.n	80001d4 <__adddf3>
 80001ce:	bf00      	nop

080001d0 <__aeabi_dsub>:
 80001d0:	f083 4300 	eor.w	r3, r3, #2147483648	; 0x80000000

080001d4 <__adddf3>:
 80001d4:	b530      	push	{r4, r5, lr}
 80001d6:	ea4f 0441 	mov.w	r4, r1, lsl #1
 80001da:	ea4f 0543 	mov.w	r5, r3, lsl #1
 80001de:	ea94 0f05 	teq	r4, r5
 80001e2:	bf08      	it	eq
 80001e4:	ea90 0f02 	teqeq	r0, r2
 80001e8:	bf1f      	itttt	ne
 80001ea:	ea54 0c00 	orrsne.w	ip, r4, r0
 80001ee:	ea55 0c02 	orrsne.w	ip, r5, r2
 80001f2:	ea7f 5c64 	mvnsne.w	ip, r4, asr #21
 80001f6:	ea7f 5c65 	mvnsne.w	ip, r5, asr #21
 80001fa:	f000 80e2 	beq.w	80003c2 <__adddf3+0x1ee>
 80001fe:	ea4f 5454 	mov.w	r4, r4, lsr #21
 8000202:	ebd4 5555 	rsbs	r5, r4, r5, lsr #21
 8000206:	bfb8      	it	lt
 8000208:	426d      	neglt	r5, r5
 800020a:	dd0c      	ble.n	8000226 <__adddf3+0x52>
 800020c:	442c      	add	r4, r5
 800020e:	ea80 0202 	eor.w	r2, r0, r2
 8000212:	ea81 0303 	eor.w	r3, r1, r3
 8000216:	ea82 0000 	eor.w	r0, r2, r0
 800021a:	ea83 0101 	eor.w	r1, r3, r1
 800021e:	ea80 0202 	eor.w	r2, r0, r2
 8000222:	ea81 0303 	eor.w	r3, r1, r3
 8000226:	2d36      	cmp	r5, #54	; 0x36
 8000228:	bf88      	it	hi
 800022a:	bd30      	pophi	{r4, r5, pc}
 800022c:	f011 4f00 	tst.w	r1, #2147483648	; 0x80000000
 8000230:	ea4f 3101 	mov.w	r1, r1, lsl #12
 8000234:	f44f 1c80 	mov.w	ip, #1048576	; 0x100000
 8000238:	ea4c 3111 	orr.w	r1, ip, r1, lsr #12
 800023c:	d002      	beq.n	8000244 <__adddf3+0x70>
 800023e:	4240      	negs	r0, r0
 8000240:	eb61 0141 	sbc.w	r1, r1, r1, lsl #1
 8000244:	f013 4f00 	tst.w	r3, #2147483648	; 0x80000000
 8000248:	ea4f 3303 	mov.w	r3, r3, lsl #12
 800024c:	ea4c 3313 	orr.w	r3, ip, r3, lsr #12
 8000250:	d002      	beq.n	8000258 <__adddf3+0x84>
 8000252:	4252      	negs	r2, r2
 8000254:	eb63 0343 	sbc.w	r3, r3, r3, lsl #1
 8000258:	ea94 0f05 	teq	r4, r5
 800025c:	f000 80a7 	beq.w	80003ae <__adddf3+0x1da>
 8000260:	f1a4 0401 	sub.w	r4, r4, #1
 8000264:	f1d5 0e20 	rsbs	lr, r5, #32
 8000268:	db0d      	blt.n	8000286 <__adddf3+0xb2>
 800026a:	fa02 fc0e 	lsl.w	ip, r2, lr
 800026e:	fa22 f205 	lsr.w	r2, r2, r5
 8000272:	1880      	adds	r0, r0, r2
 8000274:	f141 0100 	adc.w	r1, r1, #0
 8000278:	fa03 f20e 	lsl.w	r2, r3, lr
 800027c:	1880      	adds	r0, r0, r2
 800027e:	fa43 f305 	asr.w	r3, r3, r5
 8000282:	4159      	adcs	r1, r3
 8000284:	e00e      	b.n	80002a4 <__adddf3+0xd0>
 8000286:	f1a5 0520 	sub.w	r5, r5, #32
 800028a:	f10e 0e20 	add.w	lr, lr, #32
 800028e:	2a01      	cmp	r2, #1
 8000290:	fa03 fc0e 	lsl.w	ip, r3, lr
 8000294:	bf28      	it	cs
 8000296:	f04c 0c02 	orrcs.w	ip, ip, #2
 800029a:	fa43 f305 	asr.w	r3, r3, r5
 800029e:	18c0      	adds	r0, r0, r3
 80002a0:	eb51 71e3 	adcs.w	r1, r1, r3, asr #31
 80002a4:	f001 4500 	and.w	r5, r1, #2147483648	; 0x80000000
 80002a8:	d507      	bpl.n	80002ba <__adddf3+0xe6>
 80002aa:	f04f 0e00 	mov.w	lr, #0
 80002ae:	f1dc 0c00 	rsbs	ip, ip, #0
 80002b2:	eb7e 0000 	sbcs.w	r0, lr, r0
 80002b6:	eb6e 0101 	sbc.w	r1, lr, r1
 80002ba:	f5b1 1f80 	cmp.w	r1, #1048576	; 0x100000
 80002be:	d31b      	bcc.n	80002f8 <__adddf3+0x124>
 80002c0:	f5b1 1f00 	cmp.w	r1, #2097152	; 0x200000
 80002c4:	d30c      	bcc.n	80002e0 <__adddf3+0x10c>
 80002c6:	0849      	lsrs	r1, r1, #1
 80002c8:	ea5f 0030 	movs.w	r0, r0, rrx
 80002cc:	ea4f 0c3c 	mov.w	ip, ip, rrx
 80002d0:	f104 0401 	add.w	r4, r4, #1
 80002d4:	ea4f 5244 	mov.w	r2, r4, lsl #21
 80002d8:	f512 0f80 	cmn.w	r2, #4194304	; 0x400000
 80002dc:	f080 809a 	bcs.w	8000414 <__adddf3+0x240>
 80002e0:	f1bc 4f00 	cmp.w	ip, #2147483648	; 0x80000000
 80002e4:	bf08      	it	eq
 80002e6:	ea5f 0c50 	movseq.w	ip, r0, lsr #1
 80002ea:	f150 0000 	adcs.w	r0, r0, #0
 80002ee:	eb41 5104 	adc.w	r1, r1, r4, lsl #20
 80002f2:	ea41 0105 	orr.w	r1, r1, r5
 80002f6:	bd30      	pop	{r4, r5, pc}
 80002f8:	ea5f 0c4c 	movs.w	ip, ip, lsl #1
 80002fc:	4140      	adcs	r0, r0
 80002fe:	eb41 0101 	adc.w	r1, r1, r1
 8000302:	f411 1f80 	tst.w	r1, #1048576	; 0x100000
 8000306:	f1a4 0401 	sub.w	r4, r4, #1
 800030a:	d1e9      	bne.n	80002e0 <__adddf3+0x10c>
 800030c:	f091 0f00 	teq	r1, #0
 8000310:	bf04      	itt	eq
 8000312:	4601      	moveq	r1, r0
 8000314:	2000      	moveq	r0, #0
 8000316:	fab1 f381 	clz	r3, r1
 800031a:	bf08      	it	eq
 800031c:	3320      	addeq	r3, #32
 800031e:	f1a3 030b 	sub.w	r3, r3, #11
 8000322:	f1b3 0220 	subs.w	r2, r3, #32
 8000326:	da0c      	bge.n	8000342 <__adddf3+0x16e>
 8000328:	320c      	adds	r2, #12
 800032a:	dd08      	ble.n	800033e <__adddf3+0x16a>
 800032c:	f102 0c14 	add.w	ip, r2, #20
 8000330:	f1c2 020c 	rsb	r2, r2, #12
 8000334:	fa01 f00c 	lsl.w	r0, r1, ip
 8000338:	fa21 f102 	lsr.w	r1, r1, r2
 800033c:	e00c      	b.n	8000358 <__adddf3+0x184>
 800033e:	f102 0214 	add.w	r2, r2, #20
 8000342:	bfd8      	it	le
 8000344:	f1c2 0c20 	rsble	ip, r2, #32
 8000348:	fa01 f102 	lsl.w	r1, r1, r2
 800034c:	fa20 fc0c 	lsr.w	ip, r0, ip
 8000350:	bfdc      	itt	le
 8000352:	ea41 010c 	orrle.w	r1, r1, ip
 8000356:	4090      	lslle	r0, r2
 8000358:	1ae4      	subs	r4, r4, r3
 800035a:	bfa2      	ittt	ge
 800035c:	eb01 5104 	addge.w	r1, r1, r4, lsl #20
 8000360:	4329      	orrge	r1, r5
 8000362:	bd30      	popge	{r4, r5, pc}
 8000364:	ea6f 0404 	mvn.w	r4, r4
 8000368:	3c1f      	subs	r4, #31
 800036a:	da1c      	bge.n	80003a6 <__adddf3+0x1d2>
 800036c:	340c      	adds	r4, #12
 800036e:	dc0e      	bgt.n	800038e <__adddf3+0x1ba>
 8000370:	f104 0414 	add.w	r4, r4, #20
 8000374:	f1c4 0220 	rsb	r2, r4, #32
 8000378:	fa20 f004 	lsr.w	r0, r0, r4
 800037c:	fa01 f302 	lsl.w	r3, r1, r2
 8000380:	ea40 0003 	orr.w	r0, r0, r3
 8000384:	fa21 f304 	lsr.w	r3, r1, r4
 8000388:	ea45 0103 	orr.w	r1, r5, r3
 800038c:	bd30      	pop	{r4, r5, pc}
 800038e:	f1c4 040c 	rsb	r4, r4, #12
 8000392:	f1c4 0220 	rsb	r2, r4, #32
 8000396:	fa20 f002 	lsr.w	r0, r0, r2
 800039a:	fa01 f304 	lsl.w	r3, r1, r4
 800039e:	ea40 0003 	orr.w	r0, r0, r3
 80003a2:	4629      	mov	r1, r5
 80003a4:	bd30      	pop	{r4, r5, pc}
 80003a6:	fa21 f004 	lsr.w	r0, r1, r4
 80003aa:	4629      	mov	r1, r5
 80003ac:	bd30      	pop	{r4, r5, pc}
 80003ae:	f094 0f00 	teq	r4, #0
 80003b2:	f483 1380 	eor.w	r3, r3, #1048576	; 0x100000
 80003b6:	bf06      	itte	eq
 80003b8:	f481 1180 	eoreq.w	r1, r1, #1048576	; 0x100000
 80003bc:	3401      	addeq	r4, #1
 80003be:	3d01      	subne	r5, #1
 80003c0:	e74e      	b.n	8000260 <__adddf3+0x8c>
 80003c2:	ea7f 5c64 	mvns.w	ip, r4, asr #21
 80003c6:	bf18      	it	ne
 80003c8:	ea7f 5c65 	mvnsne.w	ip, r5, asr #21
 80003cc:	d029      	beq.n	8000422 <__adddf3+0x24e>
 80003ce:	ea94 0f05 	teq	r4, r5
 80003d2:	bf08      	it	eq
 80003d4:	ea90 0f02 	teqeq	r0, r2
 80003d8:	d005      	beq.n	80003e6 <__adddf3+0x212>
 80003da:	ea54 0c00 	orrs.w	ip, r4, r0
 80003de:	bf04      	itt	eq
 80003e0:	4619      	moveq	r1, r3
 80003e2:	4610      	moveq	r0, r2
 80003e4:	bd30      	pop	{r4, r5, pc}
 80003e6:	ea91 0f03 	teq	r1, r3
 80003ea:	bf1e      	ittt	ne
 80003ec:	2100      	movne	r1, #0
 80003ee:	2000      	movne	r0, #0
 80003f0:	bd30      	popne	{r4, r5, pc}
 80003f2:	ea5f 5c54 	movs.w	ip, r4, lsr #21
 80003f6:	d105      	bne.n	8000404 <__adddf3+0x230>
 80003f8:	0040      	lsls	r0, r0, #1
 80003fa:	4149      	adcs	r1, r1
 80003fc:	bf28      	it	cs
 80003fe:	f041 4100 	orrcs.w	r1, r1, #2147483648	; 0x80000000
 8000402:	bd30      	pop	{r4, r5, pc}
 8000404:	f514 0480 	adds.w	r4, r4, #4194304	; 0x400000
 8000408:	bf3c      	itt	cc
 800040a:	f501 1180 	addcc.w	r1, r1, #1048576	; 0x100000
 800040e:	bd30      	popcc	{r4, r5, pc}
 8000410:	f001 4500 	and.w	r5, r1, #2147483648	; 0x80000000
 8000414:	f045 41fe 	orr.w	r1, r5, #2130706432	; 0x7f000000
 8000418:	f441 0170 	orr.w	r1, r1, #15728640	; 0xf00000
 800041c:	f04f 0000 	mov.w	r0, #0
 8000420:	bd30      	pop	{r4, r5, pc}
 8000422:	ea7f 5c64 	mvns.w	ip, r4, asr #21
 8000426:	bf1a      	itte	ne
 8000428:	4619      	movne	r1, r3
 800042a:	4610      	movne	r0, r2
 800042c:	ea7f 5c65 	mvnseq.w	ip, r5, asr #21
 8000430:	bf1c      	itt	ne
 8000432:	460b      	movne	r3, r1
 8000434:	4602      	movne	r2, r0
 8000436:	ea50 3401 	orrs.w	r4, r0, r1, lsl #12
 800043a:	bf06      	itte	eq
 800043c:	ea52 3503 	orrseq.w	r5, r2, r3, lsl #12
 8000440:	ea91 0f03 	teqeq	r1, r3
 8000444:	f441 2100 	orrne.w	r1, r1, #524288	; 0x80000
 8000448:	bd30      	pop	{r4, r5, pc}
 800044a:	bf00      	nop

0800044c <__aeabi_ui2d>:
 800044c:	f090 0f00 	teq	r0, #0
 8000450:	bf04      	itt	eq
 8000452:	2100      	moveq	r1, #0
 8000454:	4770      	bxeq	lr
 8000456:	b530      	push	{r4, r5, lr}
 8000458:	f44f 6480 	mov.w	r4, #1024	; 0x400
 800045c:	f104 0432 	add.w	r4, r4, #50	; 0x32
 8000460:	f04f 0500 	mov.w	r5, #0
 8000464:	f04f 0100 	mov.w	r1, #0
 8000468:	e750      	b.n	800030c <__adddf3+0x138>
 800046a:	bf00      	nop

0800046c <__aeabi_i2d>:
 800046c:	f090 0f00 	teq	r0, #0
 8000470:	bf04      	itt	eq
 8000472:	2100      	moveq	r1, #0
 8000474:	4770      	bxeq	lr
 8000476:	b530      	push	{r4, r5, lr}
 8000478:	f44f 6480 	mov.w	r4, #1024	; 0x400
 800047c:	f104 0432 	add.w	r4, r4, #50	; 0x32
 8000480:	f010 4500 	ands.w	r5, r0, #2147483648	; 0x80000000
 8000484:	bf48      	it	mi
 8000486:	4240      	negmi	r0, r0
 8000488:	f04f 0100 	mov.w	r1, #0
 800048c:	e73e      	b.n	800030c <__adddf3+0x138>
 800048e:	bf00      	nop

08000490 <__aeabi_f2d>:
 8000490:	0042      	lsls	r2, r0, #1
 8000492:	ea4f 01e2 	mov.w	r1, r2, asr #3
 8000496:	ea4f 0131 	mov.w	r1, r1, rrx
 800049a:	ea4f 7002 	mov.w	r0, r2, lsl #28
 800049e:	bf1f      	itttt	ne
 80004a0:	f012 437f 	andsne.w	r3, r2, #4278190080	; 0xff000000
 80004a4:	f093 4f7f 	teqne	r3, #4278190080	; 0xff000000
 80004a8:	f081 5160 	eorne.w	r1, r1, #939524096	; 0x38000000
 80004ac:	4770      	bxne	lr
 80004ae:	f092 0f00 	teq	r2, #0
 80004b2:	bf14      	ite	ne
 80004b4:	f093 4f7f 	teqne	r3, #4278190080	; 0xff000000
 80004b8:	4770      	bxeq	lr
 80004ba:	b530      	push	{r4, r5, lr}
 80004bc:	f44f 7460 	mov.w	r4, #896	; 0x380
 80004c0:	f001 4500 	and.w	r5, r1, #2147483648	; 0x80000000
 80004c4:	f021 4100 	bic.w	r1, r1, #2147483648	; 0x80000000
 80004c8:	e720      	b.n	800030c <__adddf3+0x138>
 80004ca:	bf00      	nop

080004cc <__aeabi_ul2d>:
 80004cc:	ea50 0201 	orrs.w	r2, r0, r1
 80004d0:	bf08      	it	eq
 80004d2:	4770      	bxeq	lr
 80004d4:	b530      	push	{r4, r5, lr}
 80004d6:	f04f 0500 	mov.w	r5, #0
 80004da:	e00a      	b.n	80004f2 <__aeabi_l2d+0x16>

080004dc <__aeabi_l2d>:
 80004dc:	ea50 0201 	orrs.w	r2, r0, r1
 80004e0:	bf08      	it	eq
 80004e2:	4770      	bxeq	lr
 80004e4:	b530      	push	{r4, r5, lr}
 80004e6:	f011 4500 	ands.w	r5, r1, #2147483648	; 0x80000000
 80004ea:	d502      	bpl.n	80004f2 <__aeabi_l2d+0x16>
 80004ec:	4240      	negs	r0, r0
 80004ee:	eb61 0141 	sbc.w	r1, r1, r1, lsl #1
 80004f2:	f44f 6480 	mov.w	r4, #1024	; 0x400
 80004f6:	f104 0432 	add.w	r4, r4, #50	; 0x32
 80004fa:	ea5f 5c91 	movs.w	ip, r1, lsr #22
 80004fe:	f43f aedc 	beq.w	80002ba <__adddf3+0xe6>
 8000502:	f04f 0203 	mov.w	r2, #3
 8000506:	ea5f 0cdc 	movs.w	ip, ip, lsr #3
 800050a:	bf18      	it	ne
 800050c:	3203      	addne	r2, #3
 800050e:	ea5f 0cdc 	movs.w	ip, ip, lsr #3
 8000512:	bf18      	it	ne
 8000514:	3203      	addne	r2, #3
 8000516:	eb02 02dc 	add.w	r2, r2, ip, lsr #3
 800051a:	f1c2 0320 	rsb	r3, r2, #32
 800051e:	fa00 fc03 	lsl.w	ip, r0, r3
 8000522:	fa20 f002 	lsr.w	r0, r0, r2
 8000526:	fa01 fe03 	lsl.w	lr, r1, r3
 800052a:	ea40 000e 	orr.w	r0, r0, lr
 800052e:	fa21 f102 	lsr.w	r1, r1, r2
 8000532:	4414      	add	r4, r2
 8000534:	e6c1      	b.n	80002ba <__adddf3+0xe6>
 8000536:	bf00      	nop

08000538 <__aeabi_dmul>:
 8000538:	b570      	push	{r4, r5, r6, lr}
 800053a:	f04f 0cff 	mov.w	ip, #255	; 0xff
 800053e:	f44c 6ce0 	orr.w	ip, ip, #1792	; 0x700
 8000542:	ea1c 5411 	ands.w	r4, ip, r1, lsr #20
 8000546:	bf1d      	ittte	ne
 8000548:	ea1c 5513 	andsne.w	r5, ip, r3, lsr #20
 800054c:	ea94 0f0c 	teqne	r4, ip
 8000550:	ea95 0f0c 	teqne	r5, ip
 8000554:	f000 f8de 	bleq	8000714 <__aeabi_dmul+0x1dc>
 8000558:	442c      	add	r4, r5
 800055a:	ea81 0603 	eor.w	r6, r1, r3
 800055e:	ea21 514c 	bic.w	r1, r1, ip, lsl #21
 8000562:	ea23 534c 	bic.w	r3, r3, ip, lsl #21
 8000566:	ea50 3501 	orrs.w	r5, r0, r1, lsl #12
 800056a:	bf18      	it	ne
 800056c:	ea52 3503 	orrsne.w	r5, r2, r3, lsl #12
 8000570:	f441 1180 	orr.w	r1, r1, #1048576	; 0x100000
 8000574:	f443 1380 	orr.w	r3, r3, #1048576	; 0x100000
 8000578:	d038      	beq.n	80005ec <__aeabi_dmul+0xb4>
 800057a:	fba0 ce02 	umull	ip, lr, r0, r2
 800057e:	f04f 0500 	mov.w	r5, #0
 8000582:	fbe1 e502 	umlal	lr, r5, r1, r2
 8000586:	f006 4200 	and.w	r2, r6, #2147483648	; 0x80000000
 800058a:	fbe0 e503 	umlal	lr, r5, r0, r3
 800058e:	f04f 0600 	mov.w	r6, #0
 8000592:	fbe1 5603 	umlal	r5, r6, r1, r3
 8000596:	f09c 0f00 	teq	ip, #0
 800059a:	bf18      	it	ne
 800059c:	f04e 0e01 	orrne.w	lr, lr, #1
 80005a0:	f1a4 04ff 	sub.w	r4, r4, #255	; 0xff
 80005a4:	f5b6 7f00 	cmp.w	r6, #512	; 0x200
 80005a8:	f564 7440 	sbc.w	r4, r4, #768	; 0x300
 80005ac:	d204      	bcs.n	80005b8 <__aeabi_dmul+0x80>
 80005ae:	ea5f 0e4e 	movs.w	lr, lr, lsl #1
 80005b2:	416d      	adcs	r5, r5
 80005b4:	eb46 0606 	adc.w	r6, r6, r6
 80005b8:	ea42 21c6 	orr.w	r1, r2, r6, lsl #11
 80005bc:	ea41 5155 	orr.w	r1, r1, r5, lsr #21
 80005c0:	ea4f 20c5 	mov.w	r0, r5, lsl #11
 80005c4:	ea40 505e 	orr.w	r0, r0, lr, lsr #21
 80005c8:	ea4f 2ece 	mov.w	lr, lr, lsl #11
 80005cc:	f1b4 0cfd 	subs.w	ip, r4, #253	; 0xfd
 80005d0:	bf88      	it	hi
 80005d2:	f5bc 6fe0 	cmphi.w	ip, #1792	; 0x700
 80005d6:	d81e      	bhi.n	8000616 <__aeabi_dmul+0xde>
 80005d8:	f1be 4f00 	cmp.w	lr, #2147483648	; 0x80000000
 80005dc:	bf08      	it	eq
 80005de:	ea5f 0e50 	movseq.w	lr, r0, lsr #1
 80005e2:	f150 0000 	adcs.w	r0, r0, #0
 80005e6:	eb41 5104 	adc.w	r1, r1, r4, lsl #20
 80005ea:	bd70      	pop	{r4, r5, r6, pc}
 80005ec:	f006 4600 	and.w	r6, r6, #2147483648	; 0x80000000
 80005f0:	ea46 0101 	orr.w	r1, r6, r1
 80005f4:	ea40 0002 	orr.w	r0, r0, r2
 80005f8:	ea81 0103 	eor.w	r1, r1, r3
 80005fc:	ebb4 045c 	subs.w	r4, r4, ip, lsr #1
 8000600:	bfc2      	ittt	gt
 8000602:	ebd4 050c 	rsbsgt	r5, r4, ip
 8000606:	ea41 5104 	orrgt.w	r1, r1, r4, lsl #20
 800060a:	bd70      	popgt	{r4, r5, r6, pc}
 800060c:	f441 1180 	orr.w	r1, r1, #1048576	; 0x100000
 8000610:	f04f 0e00 	mov.w	lr, #0
 8000614:	3c01      	subs	r4, #1
 8000616:	f300 80ab 	bgt.w	8000770 <__aeabi_dmul+0x238>
 800061a:	f114 0f36 	cmn.w	r4, #54	; 0x36
 800061e:	bfde      	ittt	le
 8000620:	2000      	movle	r0, #0
 8000622:	f001 4100 	andle.w	r1, r1, #2147483648	; 0x80000000
 8000626:	bd70      	pople	{r4, r5, r6, pc}
 8000628:	f1c4 0400 	rsb	r4, r4, #0
 800062c:	3c20      	subs	r4, #32
 800062e:	da35      	bge.n	800069c <__aeabi_dmul+0x164>
 8000630:	340c      	adds	r4, #12
 8000632:	dc1b      	bgt.n	800066c <__aeabi_dmul+0x134>
 8000634:	f104 0414 	add.w	r4, r4, #20
 8000638:	f1c4 0520 	rsb	r5, r4, #32
 800063c:	fa00 f305 	lsl.w	r3, r0, r5
 8000640:	fa20 f004 	lsr.w	r0, r0, r4
 8000644:	fa01 f205 	lsl.w	r2, r1, r5
 8000648:	ea40 0002 	orr.w	r0, r0, r2
 800064c:	f001 4200 	and.w	r2, r1, #2147483648	; 0x80000000
 8000650:	f021 4100 	bic.w	r1, r1, #2147483648	; 0x80000000
 8000654:	eb10 70d3 	adds.w	r0, r0, r3, lsr #31
 8000658:	fa21 f604 	lsr.w	r6, r1, r4
 800065c:	eb42 0106 	adc.w	r1, r2, r6
 8000660:	ea5e 0e43 	orrs.w	lr, lr, r3, lsl #1
 8000664:	bf08      	it	eq
 8000666:	ea20 70d3 	biceq.w	r0, r0, r3, lsr #31
 800066a:	bd70      	pop	{r4, r5, r6, pc}
 800066c:	f1c4 040c 	rsb	r4, r4, #12
 8000670:	f1c4 0520 	rsb	r5, r4, #32
 8000674:	fa00 f304 	lsl.w	r3, r0, r4
 8000678:	fa20 f005 	lsr.w	r0, r0, r5
 800067c:	fa01 f204 	lsl.w	r2, r1, r4
 8000680:	ea40 0002 	orr.w	r0, r0, r2
 8000684:	f001 4100 	and.w	r1, r1, #2147483648	; 0x80000000
 8000688:	eb10 70d3 	adds.w	r0, r0, r3, lsr #31
 800068c:	f141 0100 	adc.w	r1, r1, #0
 8000690:	ea5e 0e43 	orrs.w	lr, lr, r3, lsl #1
 8000694:	bf08      	it	eq
 8000696:	ea20 70d3 	biceq.w	r0, r0, r3, lsr #31
 800069a:	bd70      	pop	{r4, r5, r6, pc}
 800069c:	f1c4 0520 	rsb	r5, r4, #32
 80006a0:	fa00 f205 	lsl.w	r2, r0, r5
 80006a4:	ea4e 0e02 	orr.w	lr, lr, r2
 80006a8:	fa20 f304 	lsr.w	r3, r0, r4
 80006ac:	fa01 f205 	lsl.w	r2, r1, r5
 80006b0:	ea43 0302 	orr.w	r3, r3, r2
 80006b4:	fa21 f004 	lsr.w	r0, r1, r4
 80006b8:	f001 4100 	and.w	r1, r1, #2147483648	; 0x80000000
 80006bc:	fa21 f204 	lsr.w	r2, r1, r4
 80006c0:	ea20 0002 	bic.w	r0, r0, r2
 80006c4:	eb00 70d3 	add.w	r0, r0, r3, lsr #31
 80006c8:	ea5e 0e43 	orrs.w	lr, lr, r3, lsl #1
 80006cc:	bf08      	it	eq
 80006ce:	ea20 70d3 	biceq.w	r0, r0, r3, lsr #31
 80006d2:	bd70      	pop	{r4, r5, r6, pc}
 80006d4:	f094 0f00 	teq	r4, #0
 80006d8:	d10f      	bne.n	80006fa <__aeabi_dmul+0x1c2>
 80006da:	f001 4600 	and.w	r6, r1, #2147483648	; 0x80000000
 80006de:	0040      	lsls	r0, r0, #1
 80006e0:	eb41 0101 	adc.w	r1, r1, r1
 80006e4:	f411 1f80 	tst.w	r1, #1048576	; 0x100000
 80006e8:	bf08      	it	eq
 80006ea:	3c01      	subeq	r4, #1
 80006ec:	d0f7      	beq.n	80006de <__aeabi_dmul+0x1a6>
 80006ee:	ea41 0106 	orr.w	r1, r1, r6
 80006f2:	f095 0f00 	teq	r5, #0
 80006f6:	bf18      	it	ne
 80006f8:	4770      	bxne	lr
 80006fa:	f003 4600 	and.w	r6, r3, #2147483648	; 0x80000000
 80006fe:	0052      	lsls	r2, r2, #1
 8000700:	eb43 0303 	adc.w	r3, r3, r3
 8000704:	f413 1f80 	tst.w	r3, #1048576	; 0x100000
 8000708:	bf08      	it	eq
 800070a:	3d01      	subeq	r5, #1
 800070c:	d0f7      	beq.n	80006fe <__aeabi_dmul+0x1c6>
 800070e:	ea43 0306 	orr.w	r3, r3, r6
 8000712:	4770      	bx	lr
 8000714:	ea94 0f0c 	teq	r4, ip
 8000718:	ea0c 5513 	and.w	r5, ip, r3, lsr #20
 800071c:	bf18      	it	ne
 800071e:	ea95 0f0c 	teqne	r5, ip
 8000722:	d00c      	beq.n	800073e <__aeabi_dmul+0x206>
 8000724:	ea50 0641 	orrs.w	r6, r0, r1, lsl #1
 8000728:	bf18      	it	ne
 800072a:	ea52 0643 	orrsne.w	r6, r2, r3, lsl #1
 800072e:	d1d1      	bne.n	80006d4 <__aeabi_dmul+0x19c>
 8000730:	ea81 0103 	eor.w	r1, r1, r3
 8000734:	f001 4100 	and.w	r1, r1, #2147483648	; 0x80000000
 8000738:	f04f 0000 	mov.w	r0, #0
 800073c:	bd70      	pop	{r4, r5, r6, pc}
 800073e:	ea50 0641 	orrs.w	r6, r0, r1, lsl #1
 8000742:	bf06      	itte	eq
 8000744:	4610      	moveq	r0, r2
 8000746:	4619      	moveq	r1, r3
 8000748:	ea52 0643 	orrsne.w	r6, r2, r3, lsl #1
 800074c:	d019      	beq.n	8000782 <__aeabi_dmul+0x24a>
 800074e:	ea94 0f0c 	teq	r4, ip
 8000752:	d102      	bne.n	800075a <__aeabi_dmul+0x222>
 8000754:	ea50 3601 	orrs.w	r6, r0, r1, lsl #12
 8000758:	d113      	bne.n	8000782 <__aeabi_dmul+0x24a>
 800075a:	ea95 0f0c 	teq	r5, ip
 800075e:	d105      	bne.n	800076c <__aeabi_dmul+0x234>
 8000760:	ea52 3603 	orrs.w	r6, r2, r3, lsl #12
 8000764:	bf1c      	itt	ne
 8000766:	4610      	movne	r0, r2
 8000768:	4619      	movne	r1, r3
 800076a:	d10a      	bne.n	8000782 <__aeabi_dmul+0x24a>
 800076c:	ea81 0103 	eor.w	r1, r1, r3
 8000770:	f001 4100 	and.w	r1, r1, #2147483648	; 0x80000000
 8000774:	f041 41fe 	orr.w	r1, r1, #2130706432	; 0x7f000000
 8000778:	f441 0170 	orr.w	r1, r1, #15728640	; 0xf00000
 800077c:	f04f 0000 	mov.w	r0, #0
 8000780:	bd70      	pop	{r4, r5, r6, pc}
 8000782:	f041 41fe 	orr.w	r1, r1, #2130706432	; 0x7f000000
 8000786:	f441 0178 	orr.w	r1, r1, #16252928	; 0xf80000
 800078a:	bd70      	pop	{r4, r5, r6, pc}

0800078c <__aeabi_ddiv>:
 800078c:	b570      	push	{r4, r5, r6, lr}
 800078e:	f04f 0cff 	mov.w	ip, #255	; 0xff
 8000792:	f44c 6ce0 	orr.w	ip, ip, #1792	; 0x700
 8000796:	ea1c 5411 	ands.w	r4, ip, r1, lsr #20
 800079a:	bf1d      	ittte	ne
 800079c:	ea1c 5513 	andsne.w	r5, ip, r3, lsr #20
 80007a0:	ea94 0f0c 	teqne	r4, ip
 80007a4:	ea95 0f0c 	teqne	r5, ip
 80007a8:	f000 f8a7 	bleq	80008fa <__aeabi_ddiv+0x16e>
 80007ac:	eba4 0405 	sub.w	r4, r4, r5
 80007b0:	ea81 0e03 	eor.w	lr, r1, r3
 80007b4:	ea52 3503 	orrs.w	r5, r2, r3, lsl #12
 80007b8:	ea4f 3101 	mov.w	r1, r1, lsl #12
 80007bc:	f000 8088 	beq.w	80008d0 <__aeabi_ddiv+0x144>
 80007c0:	ea4f 3303 	mov.w	r3, r3, lsl #12
 80007c4:	f04f 5580 	mov.w	r5, #268435456	; 0x10000000
 80007c8:	ea45 1313 	orr.w	r3, r5, r3, lsr #4
 80007cc:	ea43 6312 	orr.w	r3, r3, r2, lsr #24
 80007d0:	ea4f 2202 	mov.w	r2, r2, lsl #8
 80007d4:	ea45 1511 	orr.w	r5, r5, r1, lsr #4
 80007d8:	ea45 6510 	orr.w	r5, r5, r0, lsr #24
 80007dc:	ea4f 2600 	mov.w	r6, r0, lsl #8
 80007e0:	f00e 4100 	and.w	r1, lr, #2147483648	; 0x80000000
 80007e4:	429d      	cmp	r5, r3
 80007e6:	bf08      	it	eq
 80007e8:	4296      	cmpeq	r6, r2
 80007ea:	f144 04fd 	adc.w	r4, r4, #253	; 0xfd
 80007ee:	f504 7440 	add.w	r4, r4, #768	; 0x300
 80007f2:	d202      	bcs.n	80007fa <__aeabi_ddiv+0x6e>
 80007f4:	085b      	lsrs	r3, r3, #1
 80007f6:	ea4f 0232 	mov.w	r2, r2, rrx
 80007fa:	1ab6      	subs	r6, r6, r2
 80007fc:	eb65 0503 	sbc.w	r5, r5, r3
 8000800:	085b      	lsrs	r3, r3, #1
 8000802:	ea4f 0232 	mov.w	r2, r2, rrx
 8000806:	f44f 1080 	mov.w	r0, #1048576	; 0x100000
 800080a:	f44f 2c00 	mov.w	ip, #524288	; 0x80000
 800080e:	ebb6 0e02 	subs.w	lr, r6, r2
 8000812:	eb75 0e03 	sbcs.w	lr, r5, r3
 8000816:	bf22      	ittt	cs
 8000818:	1ab6      	subcs	r6, r6, r2
 800081a:	4675      	movcs	r5, lr
 800081c:	ea40 000c 	orrcs.w	r0, r0, ip
 8000820:	085b      	lsrs	r3, r3, #1
 8000822:	ea4f 0232 	mov.w	r2, r2, rrx
 8000826:	ebb6 0e02 	subs.w	lr, r6, r2
 800082a:	eb75 0e03 	sbcs.w	lr, r5, r3
 800082e:	bf22      	ittt	cs
 8000830:	1ab6      	subcs	r6, r6, r2
 8000832:	4675      	movcs	r5, lr
 8000834:	ea40 005c 	orrcs.w	r0, r0, ip, lsr #1
 8000838:	085b      	lsrs	r3, r3, #1
 800083a:	ea4f 0232 	mov.w	r2, r2, rrx
 800083e:	ebb6 0e02 	subs.w	lr, r6, r2
 8000842:	eb75 0e03 	sbcs.w	lr, r5, r3
 8000846:	bf22      	ittt	cs
 8000848:	1ab6      	subcs	r6, r6, r2
 800084a:	4675      	movcs	r5, lr
 800084c:	ea40 009c 	orrcs.w	r0, r0, ip, lsr #2
 8000850:	085b      	lsrs	r3, r3, #1
 8000852:	ea4f 0232 	mov.w	r2, r2, rrx
 8000856:	ebb6 0e02 	subs.w	lr, r6, r2
 800085a:	eb75 0e03 	sbcs.w	lr, r5, r3
 800085e:	bf22      	ittt	cs
 8000860:	1ab6      	subcs	r6, r6, r2
 8000862:	4675      	movcs	r5, lr
 8000864:	ea40 00dc 	orrcs.w	r0, r0, ip, lsr #3
 8000868:	ea55 0e06 	orrs.w	lr, r5, r6
 800086c:	d018      	beq.n	80008a0 <__aeabi_ddiv+0x114>
 800086e:	ea4f 1505 	mov.w	r5, r5, lsl #4
 8000872:	ea45 7516 	orr.w	r5, r5, r6, lsr #28
 8000876:	ea4f 1606 	mov.w	r6, r6, lsl #4
 800087a:	ea4f 03c3 	mov.w	r3, r3, lsl #3
 800087e:	ea43 7352 	orr.w	r3, r3, r2, lsr #29
 8000882:	ea4f 02c2 	mov.w	r2, r2, lsl #3
 8000886:	ea5f 1c1c 	movs.w	ip, ip, lsr #4
 800088a:	d1c0      	bne.n	800080e <__aeabi_ddiv+0x82>
 800088c:	f411 1f80 	tst.w	r1, #1048576	; 0x100000
 8000890:	d10b      	bne.n	80008aa <__aeabi_ddiv+0x11e>
 8000892:	ea41 0100 	orr.w	r1, r1, r0
 8000896:	f04f 0000 	mov.w	r0, #0
 800089a:	f04f 4c00 	mov.w	ip, #2147483648	; 0x80000000
 800089e:	e7b6      	b.n	800080e <__aeabi_ddiv+0x82>
 80008a0:	f411 1f80 	tst.w	r1, #1048576	; 0x100000
 80008a4:	bf04      	itt	eq
 80008a6:	4301      	orreq	r1, r0
 80008a8:	2000      	moveq	r0, #0
 80008aa:	f1b4 0cfd 	subs.w	ip, r4, #253	; 0xfd
 80008ae:	bf88      	it	hi
 80008b0:	f5bc 6fe0 	cmphi.w	ip, #1792	; 0x700
 80008b4:	f63f aeaf 	bhi.w	8000616 <__aeabi_dmul+0xde>
 80008b8:	ebb5 0c03 	subs.w	ip, r5, r3
 80008bc:	bf04      	itt	eq
 80008be:	ebb6 0c02 	subseq.w	ip, r6, r2
 80008c2:	ea5f 0c50 	movseq.w	ip, r0, lsr #1
 80008c6:	f150 0000 	adcs.w	r0, r0, #0
 80008ca:	eb41 5104 	adc.w	r1, r1, r4, lsl #20
 80008ce:	bd70      	pop	{r4, r5, r6, pc}
 80008d0:	f00e 4e00 	and.w	lr, lr, #2147483648	; 0x80000000
 80008d4:	ea4e 3111 	orr.w	r1, lr, r1, lsr #12
 80008d8:	eb14 045c 	adds.w	r4, r4, ip, lsr #1
 80008dc:	bfc2      	ittt	gt
 80008de:	ebd4 050c 	rsbsgt	r5, r4, ip
 80008e2:	ea41 5104 	orrgt.w	r1, r1, r4, lsl #20
 80008e6:	bd70      	popgt	{r4, r5, r6, pc}
 80008e8:	f441 1180 	orr.w	r1, r1, #1048576	; 0x100000
 80008ec:	f04f 0e00 	mov.w	lr, #0
 80008f0:	3c01      	subs	r4, #1
 80008f2:	e690      	b.n	8000616 <__aeabi_dmul+0xde>
 80008f4:	ea45 0e06 	orr.w	lr, r5, r6
 80008f8:	e68d      	b.n	8000616 <__aeabi_dmul+0xde>
 80008fa:	ea0c 5513 	and.w	r5, ip, r3, lsr #20
 80008fe:	ea94 0f0c 	teq	r4, ip
 8000902:	bf08      	it	eq
 8000904:	ea95 0f0c 	teqeq	r5, ip
 8000908:	f43f af3b 	beq.w	8000782 <__aeabi_dmul+0x24a>
 800090c:	ea94 0f0c 	teq	r4, ip
 8000910:	d10a      	bne.n	8000928 <__aeabi_ddiv+0x19c>
 8000912:	ea50 3401 	orrs.w	r4, r0, r1, lsl #12
 8000916:	f47f af34 	bne.w	8000782 <__aeabi_dmul+0x24a>
 800091a:	ea95 0f0c 	teq	r5, ip
 800091e:	f47f af25 	bne.w	800076c <__aeabi_dmul+0x234>
 8000922:	4610      	mov	r0, r2
 8000924:	4619      	mov	r1, r3
 8000926:	e72c      	b.n	8000782 <__aeabi_dmul+0x24a>
 8000928:	ea95 0f0c 	teq	r5, ip
 800092c:	d106      	bne.n	800093c <__aeabi_ddiv+0x1b0>
 800092e:	ea52 3503 	orrs.w	r5, r2, r3, lsl #12
 8000932:	f43f aefd 	beq.w	8000730 <__aeabi_dmul+0x1f8>
 8000936:	4610      	mov	r0, r2
 8000938:	4619      	mov	r1, r3
 800093a:	e722      	b.n	8000782 <__aeabi_dmul+0x24a>
 800093c:	ea50 0641 	orrs.w	r6, r0, r1, lsl #1
 8000940:	bf18      	it	ne
 8000942:	ea52 0643 	orrsne.w	r6, r2, r3, lsl #1
 8000946:	f47f aec5 	bne.w	80006d4 <__aeabi_dmul+0x19c>
 800094a:	ea50 0441 	orrs.w	r4, r0, r1, lsl #1
 800094e:	f47f af0d 	bne.w	800076c <__aeabi_dmul+0x234>
 8000952:	ea52 0543 	orrs.w	r5, r2, r3, lsl #1
 8000956:	f47f aeeb 	bne.w	8000730 <__aeabi_dmul+0x1f8>
 800095a:	e712      	b.n	8000782 <__aeabi_dmul+0x24a>

0800095c <__aeabi_d2iz>:
 800095c:	ea4f 0241 	mov.w	r2, r1, lsl #1
 8000960:	f512 1200 	adds.w	r2, r2, #2097152	; 0x200000
 8000964:	d215      	bcs.n	8000992 <__aeabi_d2iz+0x36>
 8000966:	d511      	bpl.n	800098c <__aeabi_d2iz+0x30>
 8000968:	f46f 7378 	mvn.w	r3, #992	; 0x3e0
 800096c:	ebb3 5262 	subs.w	r2, r3, r2, asr #21
 8000970:	d912      	bls.n	8000998 <__aeabi_d2iz+0x3c>
 8000972:	ea4f 23c1 	mov.w	r3, r1, lsl #11
 8000976:	f043 4300 	orr.w	r3, r3, #2147483648	; 0x80000000
 800097a:	ea43 5350 	orr.w	r3, r3, r0, lsr #21
 800097e:	f011 4f00 	tst.w	r1, #2147483648	; 0x80000000
 8000982:	fa23 f002 	lsr.w	r0, r3, r2
 8000986:	bf18      	it	ne
 8000988:	4240      	negne	r0, r0
 800098a:	4770      	bx	lr
 800098c:	f04f 0000 	mov.w	r0, #0
 8000990:	4770      	bx	lr
 8000992:	ea50 3001 	orrs.w	r0, r0, r1, lsl #12
 8000996:	d105      	bne.n	80009a4 <__aeabi_d2iz+0x48>
 8000998:	f011 4000 	ands.w	r0, r1, #2147483648	; 0x80000000
 800099c:	bf08      	it	eq
 800099e:	f06f 4000 	mvneq.w	r0, #2147483648	; 0x80000000
 80009a2:	4770      	bx	lr
 80009a4:	f04f 0000 	mov.w	r0, #0
 80009a8:	4770      	bx	lr
 80009aa:	bf00      	nop

080009ac <__aeabi_uldivmod>:
 80009ac:	b953      	cbnz	r3, 80009c4 <__aeabi_uldivmod+0x18>
 80009ae:	b94a      	cbnz	r2, 80009c4 <__aeabi_uldivmod+0x18>
 80009b0:	2900      	cmp	r1, #0
 80009b2:	bf08      	it	eq
 80009b4:	2800      	cmpeq	r0, #0
 80009b6:	bf1c      	itt	ne
 80009b8:	f04f 31ff 	movne.w	r1, #4294967295	; 0xffffffff
 80009bc:	f04f 30ff 	movne.w	r0, #4294967295	; 0xffffffff
 80009c0:	f000 b97a 	b.w	8000cb8 <__aeabi_idiv0>
 80009c4:	f1ad 0c08 	sub.w	ip, sp, #8
 80009c8:	e96d ce04 	strd	ip, lr, [sp, #-16]!
 80009cc:	f000 f806 	bl	80009dc <__udivmoddi4>
 80009d0:	f8dd e004 	ldr.w	lr, [sp, #4]
 80009d4:	e9dd 2302 	ldrd	r2, r3, [sp, #8]
 80009d8:	b004      	add	sp, #16
 80009da:	4770      	bx	lr

080009dc <__udivmoddi4>:
 80009dc:	e92d 47f0 	stmdb	sp!, {r4, r5, r6, r7, r8, r9, sl, lr}
 80009e0:	468c      	mov	ip, r1
 80009e2:	460d      	mov	r5, r1
 80009e4:	4604      	mov	r4, r0
 80009e6:	9e08      	ldr	r6, [sp, #32]
 80009e8:	2b00      	cmp	r3, #0
 80009ea:	d151      	bne.n	8000a90 <__udivmoddi4+0xb4>
 80009ec:	428a      	cmp	r2, r1
 80009ee:	4617      	mov	r7, r2
 80009f0:	d96d      	bls.n	8000ace <__udivmoddi4+0xf2>
 80009f2:	fab2 fe82 	clz	lr, r2
 80009f6:	f1be 0f00 	cmp.w	lr, #0
 80009fa:	d00b      	beq.n	8000a14 <__udivmoddi4+0x38>
 80009fc:	f1ce 0c20 	rsb	ip, lr, #32
 8000a00:	fa01 f50e 	lsl.w	r5, r1, lr
 8000a04:	fa20 fc0c 	lsr.w	ip, r0, ip
 8000a08:	fa02 f70e 	lsl.w	r7, r2, lr
 8000a0c:	ea4c 0c05 	orr.w	ip, ip, r5
 8000a10:	fa00 f40e 	lsl.w	r4, r0, lr
 8000a14:	ea4f 4a17 	mov.w	sl, r7, lsr #16
 8000a18:	0c25      	lsrs	r5, r4, #16
 8000a1a:	fbbc f8fa 	udiv	r8, ip, sl
 8000a1e:	fa1f f987 	uxth.w	r9, r7
 8000a22:	fb0a cc18 	mls	ip, sl, r8, ip
 8000a26:	ea45 450c 	orr.w	r5, r5, ip, lsl #16
 8000a2a:	fb08 f309 	mul.w	r3, r8, r9
 8000a2e:	42ab      	cmp	r3, r5
 8000a30:	d90a      	bls.n	8000a48 <__udivmoddi4+0x6c>
 8000a32:	19ed      	adds	r5, r5, r7
 8000a34:	f108 32ff 	add.w	r2, r8, #4294967295	; 0xffffffff
 8000a38:	f080 8123 	bcs.w	8000c82 <__udivmoddi4+0x2a6>
 8000a3c:	42ab      	cmp	r3, r5
 8000a3e:	f240 8120 	bls.w	8000c82 <__udivmoddi4+0x2a6>
 8000a42:	f1a8 0802 	sub.w	r8, r8, #2
 8000a46:	443d      	add	r5, r7
 8000a48:	1aed      	subs	r5, r5, r3
 8000a4a:	b2a4      	uxth	r4, r4
 8000a4c:	fbb5 f0fa 	udiv	r0, r5, sl
 8000a50:	fb0a 5510 	mls	r5, sl, r0, r5
 8000a54:	ea44 4405 	orr.w	r4, r4, r5, lsl #16
 8000a58:	fb00 f909 	mul.w	r9, r0, r9
 8000a5c:	45a1      	cmp	r9, r4
 8000a5e:	d909      	bls.n	8000a74 <__udivmoddi4+0x98>
 8000a60:	19e4      	adds	r4, r4, r7
 8000a62:	f100 33ff 	add.w	r3, r0, #4294967295	; 0xffffffff
 8000a66:	f080 810a 	bcs.w	8000c7e <__udivmoddi4+0x2a2>
 8000a6a:	45a1      	cmp	r9, r4
 8000a6c:	f240 8107 	bls.w	8000c7e <__udivmoddi4+0x2a2>
 8000a70:	3802      	subs	r0, #2
 8000a72:	443c      	add	r4, r7
 8000a74:	eba4 0409 	sub.w	r4, r4, r9
 8000a78:	ea40 4008 	orr.w	r0, r0, r8, lsl #16
 8000a7c:	2100      	movs	r1, #0
 8000a7e:	2e00      	cmp	r6, #0
 8000a80:	d061      	beq.n	8000b46 <__udivmoddi4+0x16a>
 8000a82:	fa24 f40e 	lsr.w	r4, r4, lr
 8000a86:	2300      	movs	r3, #0
 8000a88:	6034      	str	r4, [r6, #0]
 8000a8a:	6073      	str	r3, [r6, #4]
 8000a8c:	e8bd 87f0 	ldmia.w	sp!, {r4, r5, r6, r7, r8, r9, sl, pc}
 8000a90:	428b      	cmp	r3, r1
 8000a92:	d907      	bls.n	8000aa4 <__udivmoddi4+0xc8>
 8000a94:	2e00      	cmp	r6, #0
 8000a96:	d054      	beq.n	8000b42 <__udivmoddi4+0x166>
 8000a98:	2100      	movs	r1, #0
 8000a9a:	e886 0021 	stmia.w	r6, {r0, r5}
 8000a9e:	4608      	mov	r0, r1
 8000aa0:	e8bd 87f0 	ldmia.w	sp!, {r4, r5, r6, r7, r8, r9, sl, pc}
 8000aa4:	fab3 f183 	clz	r1, r3
 8000aa8:	2900      	cmp	r1, #0
 8000aaa:	f040 808e 	bne.w	8000bca <__udivmoddi4+0x1ee>
 8000aae:	42ab      	cmp	r3, r5
 8000ab0:	d302      	bcc.n	8000ab8 <__udivmoddi4+0xdc>
 8000ab2:	4282      	cmp	r2, r0
 8000ab4:	f200 80fa 	bhi.w	8000cac <__udivmoddi4+0x2d0>
 8000ab8:	1a84      	subs	r4, r0, r2
 8000aba:	eb65 0503 	sbc.w	r5, r5, r3
 8000abe:	2001      	movs	r0, #1
 8000ac0:	46ac      	mov	ip, r5
 8000ac2:	2e00      	cmp	r6, #0
 8000ac4:	d03f      	beq.n	8000b46 <__udivmoddi4+0x16a>
 8000ac6:	e886 1010 	stmia.w	r6, {r4, ip}
 8000aca:	e8bd 87f0 	ldmia.w	sp!, {r4, r5, r6, r7, r8, r9, sl, pc}
 8000ace:	b912      	cbnz	r2, 8000ad6 <__udivmoddi4+0xfa>
 8000ad0:	2701      	movs	r7, #1
 8000ad2:	fbb7 f7f2 	udiv	r7, r7, r2
 8000ad6:	fab7 fe87 	clz	lr, r7
 8000ada:	f1be 0f00 	cmp.w	lr, #0
 8000ade:	d134      	bne.n	8000b4a <__udivmoddi4+0x16e>
 8000ae0:	1beb      	subs	r3, r5, r7
 8000ae2:	0c3a      	lsrs	r2, r7, #16
 8000ae4:	fa1f fc87 	uxth.w	ip, r7
 8000ae8:	2101      	movs	r1, #1
 8000aea:	fbb3 f8f2 	udiv	r8, r3, r2
 8000aee:	0c25      	lsrs	r5, r4, #16
 8000af0:	fb02 3318 	mls	r3, r2, r8, r3
 8000af4:	ea45 4503 	orr.w	r5, r5, r3, lsl #16
 8000af8:	fb0c f308 	mul.w	r3, ip, r8
 8000afc:	42ab      	cmp	r3, r5
 8000afe:	d907      	bls.n	8000b10 <__udivmoddi4+0x134>
 8000b00:	19ed      	adds	r5, r5, r7
 8000b02:	f108 30ff 	add.w	r0, r8, #4294967295	; 0xffffffff
 8000b06:	d202      	bcs.n	8000b0e <__udivmoddi4+0x132>
 8000b08:	42ab      	cmp	r3, r5
 8000b0a:	f200 80d1 	bhi.w	8000cb0 <__udivmoddi4+0x2d4>
 8000b0e:	4680      	mov	r8, r0
 8000b10:	1aed      	subs	r5, r5, r3
 8000b12:	b2a3      	uxth	r3, r4
 8000b14:	fbb5 f0f2 	udiv	r0, r5, r2
 8000b18:	fb02 5510 	mls	r5, r2, r0, r5
 8000b1c:	ea43 4405 	orr.w	r4, r3, r5, lsl #16
 8000b20:	fb0c fc00 	mul.w	ip, ip, r0
 8000b24:	45a4      	cmp	ip, r4
 8000b26:	d907      	bls.n	8000b38 <__udivmoddi4+0x15c>
 8000b28:	19e4      	adds	r4, r4, r7
 8000b2a:	f100 33ff 	add.w	r3, r0, #4294967295	; 0xffffffff
 8000b2e:	d202      	bcs.n	8000b36 <__udivmoddi4+0x15a>
 8000b30:	45a4      	cmp	ip, r4
 8000b32:	f200 80b8 	bhi.w	8000ca6 <__udivmoddi4+0x2ca>
 8000b36:	4618      	mov	r0, r3
 8000b38:	eba4 040c 	sub.w	r4, r4, ip
 8000b3c:	ea40 4008 	orr.w	r0, r0, r8, lsl #16
 8000b40:	e79d      	b.n	8000a7e <__udivmoddi4+0xa2>
 8000b42:	4631      	mov	r1, r6
 8000b44:	4630      	mov	r0, r6
 8000b46:	e8bd 87f0 	ldmia.w	sp!, {r4, r5, r6, r7, r8, r9, sl, pc}
 8000b4a:	f1ce 0420 	rsb	r4, lr, #32
 8000b4e:	fa05 f30e 	lsl.w	r3, r5, lr
 8000b52:	fa07 f70e 	lsl.w	r7, r7, lr
 8000b56:	fa20 f804 	lsr.w	r8, r0, r4
 8000b5a:	0c3a      	lsrs	r2, r7, #16
 8000b5c:	fa25 f404 	lsr.w	r4, r5, r4
 8000b60:	ea48 0803 	orr.w	r8, r8, r3
 8000b64:	fbb4 f1f2 	udiv	r1, r4, r2
 8000b68:	ea4f 4518 	mov.w	r5, r8, lsr #16
 8000b6c:	fb02 4411 	mls	r4, r2, r1, r4
 8000b70:	fa1f fc87 	uxth.w	ip, r7
 8000b74:	ea45 4504 	orr.w	r5, r5, r4, lsl #16
 8000b78:	fb01 f30c 	mul.w	r3, r1, ip
 8000b7c:	42ab      	cmp	r3, r5
 8000b7e:	fa00 f40e 	lsl.w	r4, r0, lr
 8000b82:	d909      	bls.n	8000b98 <__udivmoddi4+0x1bc>
 8000b84:	19ed      	adds	r5, r5, r7
 8000b86:	f101 30ff 	add.w	r0, r1, #4294967295	; 0xffffffff
 8000b8a:	f080 808a 	bcs.w	8000ca2 <__udivmoddi4+0x2c6>
 8000b8e:	42ab      	cmp	r3, r5
 8000b90:	f240 8087 	bls.w	8000ca2 <__udivmoddi4+0x2c6>
 8000b94:	3902      	subs	r1, #2
 8000b96:	443d      	add	r5, r7
 8000b98:	1aeb      	subs	r3, r5, r3
 8000b9a:	fa1f f588 	uxth.w	r5, r8
 8000b9e:	fbb3 f0f2 	udiv	r0, r3, r2
 8000ba2:	fb02 3310 	mls	r3, r2, r0, r3
 8000ba6:	ea45 4503 	orr.w	r5, r5, r3, lsl #16
 8000baa:	fb00 f30c 	mul.w	r3, r0, ip
 8000bae:	42ab      	cmp	r3, r5
 8000bb0:	d907      	bls.n	8000bc2 <__udivmoddi4+0x1e6>
 8000bb2:	19ed      	adds	r5, r5, r7
 8000bb4:	f100 38ff 	add.w	r8, r0, #4294967295	; 0xffffffff
 8000bb8:	d26f      	bcs.n	8000c9a <__udivmoddi4+0x2be>
 8000bba:	42ab      	cmp	r3, r5
 8000bbc:	d96d      	bls.n	8000c9a <__udivmoddi4+0x2be>
 8000bbe:	3802      	subs	r0, #2
 8000bc0:	443d      	add	r5, r7
 8000bc2:	1aeb      	subs	r3, r5, r3
 8000bc4:	ea40 4101 	orr.w	r1, r0, r1, lsl #16
 8000bc8:	e78f      	b.n	8000aea <__udivmoddi4+0x10e>
 8000bca:	f1c1 0720 	rsb	r7, r1, #32
 8000bce:	fa22 f807 	lsr.w	r8, r2, r7
 8000bd2:	408b      	lsls	r3, r1
 8000bd4:	fa05 f401 	lsl.w	r4, r5, r1
 8000bd8:	ea48 0303 	orr.w	r3, r8, r3
 8000bdc:	fa20 fe07 	lsr.w	lr, r0, r7
 8000be0:	ea4f 4c13 	mov.w	ip, r3, lsr #16
 8000be4:	40fd      	lsrs	r5, r7
 8000be6:	ea4e 0e04 	orr.w	lr, lr, r4
 8000bea:	fbb5 f9fc 	udiv	r9, r5, ip
 8000bee:	ea4f 441e 	mov.w	r4, lr, lsr #16
 8000bf2:	fb0c 5519 	mls	r5, ip, r9, r5
 8000bf6:	fa1f f883 	uxth.w	r8, r3
 8000bfa:	ea44 4505 	orr.w	r5, r4, r5, lsl #16
 8000bfe:	fb09 f408 	mul.w	r4, r9, r8
 8000c02:	42ac      	cmp	r4, r5
 8000c04:	fa02 f201 	lsl.w	r2, r2, r1
 8000c08:	fa00 fa01 	lsl.w	sl, r0, r1
 8000c0c:	d908      	bls.n	8000c20 <__udivmoddi4+0x244>
 8000c0e:	18ed      	adds	r5, r5, r3
 8000c10:	f109 30ff 	add.w	r0, r9, #4294967295	; 0xffffffff
 8000c14:	d243      	bcs.n	8000c9e <__udivmoddi4+0x2c2>
 8000c16:	42ac      	cmp	r4, r5
 8000c18:	d941      	bls.n	8000c9e <__udivmoddi4+0x2c2>
 8000c1a:	f1a9 0902 	sub.w	r9, r9, #2
 8000c1e:	441d      	add	r5, r3
 8000c20:	1b2d      	subs	r5, r5, r4
 8000c22:	fa1f fe8e 	uxth.w	lr, lr
 8000c26:	fbb5 f0fc 	udiv	r0, r5, ip
 8000c2a:	fb0c 5510 	mls	r5, ip, r0, r5
 8000c2e:	ea4e 4405 	orr.w	r4, lr, r5, lsl #16
 8000c32:	fb00 f808 	mul.w	r8, r0, r8
 8000c36:	45a0      	cmp	r8, r4
 8000c38:	d907      	bls.n	8000c4a <__udivmoddi4+0x26e>
 8000c3a:	18e4      	adds	r4, r4, r3
 8000c3c:	f100 35ff 	add.w	r5, r0, #4294967295	; 0xffffffff
 8000c40:	d229      	bcs.n	8000c96 <__udivmoddi4+0x2ba>
 8000c42:	45a0      	cmp	r8, r4
 8000c44:	d927      	bls.n	8000c96 <__udivmoddi4+0x2ba>
 8000c46:	3802      	subs	r0, #2
 8000c48:	441c      	add	r4, r3
 8000c4a:	ea40 4009 	orr.w	r0, r0, r9, lsl #16
 8000c4e:	eba4 0408 	sub.w	r4, r4, r8
 8000c52:	fba0 8902 	umull	r8, r9, r0, r2
 8000c56:	454c      	cmp	r4, r9
 8000c58:	46c6      	mov	lr, r8
 8000c5a:	464d      	mov	r5, r9
 8000c5c:	d315      	bcc.n	8000c8a <__udivmoddi4+0x2ae>
 8000c5e:	d012      	beq.n	8000c86 <__udivmoddi4+0x2aa>
 8000c60:	b156      	cbz	r6, 8000c78 <__udivmoddi4+0x29c>
 8000c62:	ebba 030e 	subs.w	r3, sl, lr
 8000c66:	eb64 0405 	sbc.w	r4, r4, r5
 8000c6a:	fa04 f707 	lsl.w	r7, r4, r7
 8000c6e:	40cb      	lsrs	r3, r1
 8000c70:	431f      	orrs	r7, r3
 8000c72:	40cc      	lsrs	r4, r1
 8000c74:	6037      	str	r7, [r6, #0]
 8000c76:	6074      	str	r4, [r6, #4]
 8000c78:	2100      	movs	r1, #0
 8000c7a:	e8bd 87f0 	ldmia.w	sp!, {r4, r5, r6, r7, r8, r9, sl, pc}
 8000c7e:	4618      	mov	r0, r3
 8000c80:	e6f8      	b.n	8000a74 <__udivmoddi4+0x98>
 8000c82:	4690      	mov	r8, r2
 8000c84:	e6e0      	b.n	8000a48 <__udivmoddi4+0x6c>
 8000c86:	45c2      	cmp	sl, r8
 8000c88:	d2ea      	bcs.n	8000c60 <__udivmoddi4+0x284>
 8000c8a:	ebb8 0e02 	subs.w	lr, r8, r2
 8000c8e:	eb69 0503 	sbc.w	r5, r9, r3
 8000c92:	3801      	subs	r0, #1
 8000c94:	e7e4      	b.n	8000c60 <__udivmoddi4+0x284>
 8000c96:	4628      	mov	r0, r5
 8000c98:	e7d7      	b.n	8000c4a <__udivmoddi4+0x26e>
 8000c9a:	4640      	mov	r0, r8
 8000c9c:	e791      	b.n	8000bc2 <__udivmoddi4+0x1e6>
 8000c9e:	4681      	mov	r9, r0
 8000ca0:	e7be      	b.n	8000c20 <__udivmoddi4+0x244>
 8000ca2:	4601      	mov	r1, r0
 8000ca4:	e778      	b.n	8000b98 <__udivmoddi4+0x1bc>
 8000ca6:	3802      	subs	r0, #2
 8000ca8:	443c      	add	r4, r7
 8000caa:	e745      	b.n	8000b38 <__udivmoddi4+0x15c>
 8000cac:	4608      	mov	r0, r1
 8000cae:	e708      	b.n	8000ac2 <__udivmoddi4+0xe6>
 8000cb0:	f1a8 0802 	sub.w	r8, r8, #2
 8000cb4:	443d      	add	r5, r7
 8000cb6:	e72b      	b.n	8000b10 <__udivmoddi4+0x134>

08000cb8 <__aeabi_idiv0>:
 8000cb8:	4770      	bx	lr
 8000cba:	bf00      	nop

08000cbc <HAL_InitTick>:
 8000cbc:	b538      	push	{r3, r4, r5, lr}
 8000cbe:	4a0e      	ldr	r2, [pc, #56]	; (8000cf8 <HAL_InitTick+0x3c>)
 8000cc0:	4b0e      	ldr	r3, [pc, #56]	; (8000cfc <HAL_InitTick+0x40>)
 8000cc2:	4605      	mov	r5, r0
 8000cc4:	7818      	ldrb	r0, [r3, #0]
 8000cc6:	f44f 737a 	mov.w	r3, #1000	; 0x3e8
 8000cca:	fbb3 f3f0 	udiv	r3, r3, r0
 8000cce:	6810      	ldr	r0, [r2, #0]
 8000cd0:	fbb0 f0f3 	udiv	r0, r0, r3
 8000cd4:	f000 f896 	bl	8000e04 <HAL_SYSTICK_Config>
 8000cd8:	4604      	mov	r4, r0
 8000cda:	b958      	cbnz	r0, 8000cf4 <HAL_InitTick+0x38>
 8000cdc:	2d0f      	cmp	r5, #15
 8000cde:	d809      	bhi.n	8000cf4 <HAL_InitTick+0x38>
 8000ce0:	4602      	mov	r2, r0
 8000ce2:	4629      	mov	r1, r5
 8000ce4:	f04f 30ff 	mov.w	r0, #4294967295	; 0xffffffff
 8000ce8:	f000 f84a 	bl	8000d80 <HAL_NVIC_SetPriority>
 8000cec:	4b04      	ldr	r3, [pc, #16]	; (8000d00 <HAL_InitTick+0x44>)
 8000cee:	4620      	mov	r0, r4
 8000cf0:	601d      	str	r5, [r3, #0]
 8000cf2:	bd38      	pop	{r3, r4, r5, pc}
 8000cf4:	2001      	movs	r0, #1
 8000cf6:	bd38      	pop	{r3, r4, r5, pc}
 8000cf8:	20000008 	.word	0x20000008
 8000cfc:	20000000 	.word	0x20000000
 8000d00:	20000004 	.word	0x20000004

08000d04 <HAL_Init>:
 8000d04:	b508      	push	{r3, lr}
 8000d06:	4b0b      	ldr	r3, [pc, #44]	; (8000d34 <HAL_Init+0x30>)
 8000d08:	681a      	ldr	r2, [r3, #0]
 8000d0a:	f442 7200 	orr.w	r2, r2, #512	; 0x200
 8000d0e:	601a      	str	r2, [r3, #0]
 8000d10:	681a      	ldr	r2, [r3, #0]
 8000d12:	f442 6280 	orr.w	r2, r2, #1024	; 0x400
 8000d16:	601a      	str	r2, [r3, #0]
 8000d18:	681a      	ldr	r2, [r3, #0]
 8000d1a:	f442 7280 	orr.w	r2, r2, #256	; 0x100
 8000d1e:	601a      	str	r2, [r3, #0]
 8000d20:	2003      	movs	r0, #3
 8000d22:	f000 f81b 	bl	8000d5c <HAL_NVIC_SetPriorityGrouping>
 8000d26:	2000      	movs	r0, #0
 8000d28:	f7ff ffc8 	bl	8000cbc <HAL_InitTick>
 8000d2c:	f002 face 	bl	80032cc <HAL_MspInit>
 8000d30:	2000      	movs	r0, #0
 8000d32:	bd08      	pop	{r3, pc}
 8000d34:	40023c00 	.word	0x40023c00

08000d38 <HAL_IncTick>:
 8000d38:	4a03      	ldr	r2, [pc, #12]	; (8000d48 <HAL_IncTick+0x10>)
 8000d3a:	4b04      	ldr	r3, [pc, #16]	; (8000d4c <HAL_IncTick+0x14>)
 8000d3c:	6811      	ldr	r1, [r2, #0]
 8000d3e:	781b      	ldrb	r3, [r3, #0]
 8000d40:	440b      	add	r3, r1
 8000d42:	6013      	str	r3, [r2, #0]
 8000d44:	4770      	bx	lr
 8000d46:	bf00      	nop
 8000d48:	20000028 	.word	0x20000028
 8000d4c:	20000000 	.word	0x20000000

08000d50 <HAL_GetTick>:
 8000d50:	4b01      	ldr	r3, [pc, #4]	; (8000d58 <HAL_GetTick+0x8>)
 8000d52:	6818      	ldr	r0, [r3, #0]
 8000d54:	4770      	bx	lr
 8000d56:	bf00      	nop
 8000d58:	20000028 	.word	0x20000028

08000d5c <HAL_NVIC_SetPriorityGrouping>:
 8000d5c:	4a07      	ldr	r2, [pc, #28]	; (8000d7c <HAL_NVIC_SetPriorityGrouping+0x20>)
 8000d5e:	68d3      	ldr	r3, [r2, #12]
 8000d60:	f423 63e0 	bic.w	r3, r3, #1792	; 0x700
 8000d64:	041b      	lsls	r3, r3, #16
 8000d66:	0c1b      	lsrs	r3, r3, #16
 8000d68:	f043 63bf 	orr.w	r3, r3, #100139008	; 0x5f80000
 8000d6c:	0200      	lsls	r0, r0, #8
 8000d6e:	f443 3300 	orr.w	r3, r3, #131072	; 0x20000
 8000d72:	f400 60e0 	and.w	r0, r0, #1792	; 0x700
 8000d76:	4303      	orrs	r3, r0
 8000d78:	60d3      	str	r3, [r2, #12]
 8000d7a:	4770      	bx	lr
 8000d7c:	e000ed00 	.word	0xe000ed00

08000d80 <HAL_NVIC_SetPriority>:
 8000d80:	4b17      	ldr	r3, [pc, #92]	; (8000de0 <HAL_NVIC_SetPriority+0x60>)
 8000d82:	b530      	push	{r4, r5, lr}
 8000d84:	68dc      	ldr	r4, [r3, #12]
 8000d86:	f3c4 2402 	ubfx	r4, r4, #8, #3
 8000d8a:	f1c4 0307 	rsb	r3, r4, #7
 8000d8e:	1d25      	adds	r5, r4, #4
 8000d90:	2b04      	cmp	r3, #4
 8000d92:	bf28      	it	cs
 8000d94:	2304      	movcs	r3, #4
 8000d96:	2d06      	cmp	r5, #6
 8000d98:	f04f 0501 	mov.w	r5, #1
 8000d9c:	fa05 f303 	lsl.w	r3, r5, r3
 8000da0:	f103 33ff 	add.w	r3, r3, #4294967295	; 0xffffffff
 8000da4:	bf8c      	ite	hi
 8000da6:	3c03      	subhi	r4, #3
 8000da8:	2400      	movls	r4, #0
 8000daa:	4019      	ands	r1, r3
 8000dac:	40a1      	lsls	r1, r4
 8000dae:	fa05 f404 	lsl.w	r4, r5, r4
 8000db2:	3c01      	subs	r4, #1
 8000db4:	4022      	ands	r2, r4
 8000db6:	2800      	cmp	r0, #0
 8000db8:	ea42 0201 	orr.w	r2, r2, r1
 8000dbc:	ea4f 1202 	mov.w	r2, r2, lsl #4
 8000dc0:	bfad      	iteet	ge
 8000dc2:	f100 4060 	addge.w	r0, r0, #3758096384	; 0xe0000000
 8000dc6:	f000 000f 	andlt.w	r0, r0, #15
 8000dca:	4b06      	ldrlt	r3, [pc, #24]	; (8000de4 <HAL_NVIC_SetPriority+0x64>)
 8000dcc:	f500 4061 	addge.w	r0, r0, #57600	; 0xe100
 8000dd0:	bfb5      	itete	lt
 8000dd2:	b2d2      	uxtblt	r2, r2
 8000dd4:	b2d2      	uxtbge	r2, r2
 8000dd6:	541a      	strblt	r2, [r3, r0]
 8000dd8:	f880 2300 	strbge.w	r2, [r0, #768]	; 0x300
 8000ddc:	bd30      	pop	{r4, r5, pc}
 8000dde:	bf00      	nop
 8000de0:	e000ed00 	.word	0xe000ed00
 8000de4:	e000ed14 	.word	0xe000ed14

08000de8 <HAL_NVIC_EnableIRQ>:
 8000de8:	2800      	cmp	r0, #0
 8000dea:	db08      	blt.n	8000dfe <HAL_NVIC_EnableIRQ+0x16>
 8000dec:	0942      	lsrs	r2, r0, #5
 8000dee:	2301      	movs	r3, #1
 8000df0:	f000 001f 	and.w	r0, r0, #31
 8000df4:	fa03 f000 	lsl.w	r0, r3, r0
 8000df8:	4b01      	ldr	r3, [pc, #4]	; (8000e00 <HAL_NVIC_EnableIRQ+0x18>)
 8000dfa:	f843 0022 	str.w	r0, [r3, r2, lsl #2]
 8000dfe:	4770      	bx	lr
 8000e00:	e000e100 	.word	0xe000e100

08000e04 <HAL_SYSTICK_Config>:
 8000e04:	3801      	subs	r0, #1
 8000e06:	f1b0 7f80 	cmp.w	r0, #16777216	; 0x1000000
 8000e0a:	d20a      	bcs.n	8000e22 <HAL_SYSTICK_Config+0x1e>
 8000e0c:	4b06      	ldr	r3, [pc, #24]	; (8000e28 <HAL_SYSTICK_Config+0x24>)
 8000e0e:	4a07      	ldr	r2, [pc, #28]	; (8000e2c <HAL_SYSTICK_Config+0x28>)
 8000e10:	6058      	str	r0, [r3, #4]
 8000e12:	21f0      	movs	r1, #240	; 0xf0
 8000e14:	f882 1023 	strb.w	r1, [r2, #35]	; 0x23
 8000e18:	2000      	movs	r0, #0
 8000e1a:	2207      	movs	r2, #7
 8000e1c:	6098      	str	r0, [r3, #8]
 8000e1e:	601a      	str	r2, [r3, #0]
 8000e20:	4770      	bx	lr
 8000e22:	2001      	movs	r0, #1
 8000e24:	4770      	bx	lr
 8000e26:	bf00      	nop
 8000e28:	e000e010 	.word	0xe000e010
 8000e2c:	e000ed00 	.word	0xe000ed00

08000e30 <DMA_CalcBaseAndBitshift>:
 8000e30:	6803      	ldr	r3, [r0, #0]
 8000e32:	b2da      	uxtb	r2, r3
 8000e34:	f423 737f 	bic.w	r3, r3, #1020	; 0x3fc
 8000e38:	f023 0303 	bic.w	r3, r3, #3
 8000e3c:	2118      	movs	r1, #24
 8000e3e:	3a10      	subs	r2, #16
 8000e40:	fbb2 f2f1 	udiv	r2, r2, r1
 8000e44:	4904      	ldr	r1, [pc, #16]	; (8000e58 <DMA_CalcBaseAndBitshift+0x28>)
 8000e46:	2a03      	cmp	r2, #3
 8000e48:	bf88      	it	hi
 8000e4a:	3304      	addhi	r3, #4
 8000e4c:	5c89      	ldrb	r1, [r1, r2]
 8000e4e:	6583      	str	r3, [r0, #88]	; 0x58
 8000e50:	65c1      	str	r1, [r0, #92]	; 0x5c
 8000e52:	6d80      	ldr	r0, [r0, #88]	; 0x58
 8000e54:	4770      	bx	lr
 8000e56:	bf00      	nop
 8000e58:	080035dc 	.word	0x080035dc

08000e5c <HAL_DMA_Init>:
 8000e5c:	b570      	push	{r4, r5, r6, lr}
 8000e5e:	4604      	mov	r4, r0
 8000e60:	f7ff ff76 	bl	8000d50 <HAL_GetTick>
 8000e64:	4605      	mov	r5, r0
 8000e66:	2c00      	cmp	r4, #0
 8000e68:	d071      	beq.n	8000f4e <HAL_DMA_Init+0xf2>
 8000e6a:	2300      	movs	r3, #0
 8000e6c:	f884 3034 	strb.w	r3, [r4, #52]	; 0x34
 8000e70:	6822      	ldr	r2, [r4, #0]
 8000e72:	2302      	movs	r3, #2
 8000e74:	f884 3035 	strb.w	r3, [r4, #53]	; 0x35
 8000e78:	6813      	ldr	r3, [r2, #0]
 8000e7a:	f023 0301 	bic.w	r3, r3, #1
 8000e7e:	6013      	str	r3, [r2, #0]
 8000e80:	6821      	ldr	r1, [r4, #0]
 8000e82:	680b      	ldr	r3, [r1, #0]
 8000e84:	07d8      	lsls	r0, r3, #31
 8000e86:	d43c      	bmi.n	8000f02 <HAL_DMA_Init+0xa6>
 8000e88:	680b      	ldr	r3, [r1, #0]
 8000e8a:	4d32      	ldr	r5, [pc, #200]	; (8000f54 <HAL_DMA_Init+0xf8>)
 8000e8c:	6862      	ldr	r2, [r4, #4]
 8000e8e:	69a0      	ldr	r0, [r4, #24]
 8000e90:	401d      	ands	r5, r3
 8000e92:	68a3      	ldr	r3, [r4, #8]
 8000e94:	4313      	orrs	r3, r2
 8000e96:	68e2      	ldr	r2, [r4, #12]
 8000e98:	4313      	orrs	r3, r2
 8000e9a:	6922      	ldr	r2, [r4, #16]
 8000e9c:	4313      	orrs	r3, r2
 8000e9e:	6962      	ldr	r2, [r4, #20]
 8000ea0:	4313      	orrs	r3, r2
 8000ea2:	69e2      	ldr	r2, [r4, #28]
 8000ea4:	4303      	orrs	r3, r0
 8000ea6:	4313      	orrs	r3, r2
 8000ea8:	6a22      	ldr	r2, [r4, #32]
 8000eaa:	4313      	orrs	r3, r2
 8000eac:	6a62      	ldr	r2, [r4, #36]	; 0x24
 8000eae:	2a04      	cmp	r2, #4
 8000eb0:	ea43 0305 	orr.w	r3, r3, r5
 8000eb4:	bf01      	itttt	eq
 8000eb6:	6b26      	ldreq	r6, [r4, #48]	; 0x30
 8000eb8:	6ae5      	ldreq	r5, [r4, #44]	; 0x2c
 8000eba:	4335      	orreq	r5, r6
 8000ebc:	432b      	orreq	r3, r5
 8000ebe:	600b      	str	r3, [r1, #0]
 8000ec0:	694b      	ldr	r3, [r1, #20]
 8000ec2:	2a04      	cmp	r2, #4
 8000ec4:	f023 0307 	bic.w	r3, r3, #7
 8000ec8:	ea43 0302 	orr.w	r3, r3, r2
 8000ecc:	d10b      	bne.n	8000ee6 <HAL_DMA_Init+0x8a>
 8000ece:	6aa2      	ldr	r2, [r4, #40]	; 0x28
 8000ed0:	6ae5      	ldr	r5, [r4, #44]	; 0x2c
 8000ed2:	4313      	orrs	r3, r2
 8000ed4:	b13d      	cbz	r5, 8000ee6 <HAL_DMA_Init+0x8a>
 8000ed6:	b9f8      	cbnz	r0, 8000f18 <HAL_DMA_Init+0xbc>
 8000ed8:	2a01      	cmp	r2, #1
 8000eda:	d02d      	beq.n	8000f38 <HAL_DMA_Init+0xdc>
 8000edc:	d301      	bcc.n	8000ee2 <HAL_DMA_Init+0x86>
 8000ede:	2a02      	cmp	r2, #2
 8000ee0:	d101      	bne.n	8000ee6 <HAL_DMA_Init+0x8a>
 8000ee2:	01ea      	lsls	r2, r5, #7
 8000ee4:	d42b      	bmi.n	8000f3e <HAL_DMA_Init+0xe2>
 8000ee6:	614b      	str	r3, [r1, #20]
 8000ee8:	4620      	mov	r0, r4
 8000eea:	f7ff ffa1 	bl	8000e30 <DMA_CalcBaseAndBitshift>
 8000eee:	6de2      	ldr	r2, [r4, #92]	; 0x5c
 8000ef0:	233f      	movs	r3, #63	; 0x3f
 8000ef2:	4093      	lsls	r3, r2
 8000ef4:	6083      	str	r3, [r0, #8]
 8000ef6:	2000      	movs	r0, #0
 8000ef8:	2301      	movs	r3, #1
 8000efa:	6560      	str	r0, [r4, #84]	; 0x54
 8000efc:	f884 3035 	strb.w	r3, [r4, #53]	; 0x35
 8000f00:	bd70      	pop	{r4, r5, r6, pc}
 8000f02:	f7ff ff25 	bl	8000d50 <HAL_GetTick>
 8000f06:	1b40      	subs	r0, r0, r5
 8000f08:	2805      	cmp	r0, #5
 8000f0a:	d9b9      	bls.n	8000e80 <HAL_DMA_Init+0x24>
 8000f0c:	2320      	movs	r3, #32
 8000f0e:	6563      	str	r3, [r4, #84]	; 0x54
 8000f10:	2003      	movs	r0, #3
 8000f12:	f884 0035 	strb.w	r0, [r4, #53]	; 0x35
 8000f16:	bd70      	pop	{r4, r5, r6, pc}
 8000f18:	f5b0 5f00 	cmp.w	r0, #8192	; 0x2000
 8000f1c:	d113      	bne.n	8000f46 <HAL_DMA_Init+0xea>
 8000f1e:	2a03      	cmp	r2, #3
 8000f20:	d8e1      	bhi.n	8000ee6 <HAL_DMA_Init+0x8a>
 8000f22:	a001      	add	r0, pc, #4	; (adr r0, 8000f28 <HAL_DMA_Init+0xcc>)
 8000f24:	f850 f022 	ldr.w	pc, [r0, r2, lsl #2]
 8000f28:	08000f3f 	.word	0x08000f3f
 8000f2c:	08000ee3 	.word	0x08000ee3
 8000f30:	08000f3f 	.word	0x08000f3f
 8000f34:	08000f39 	.word	0x08000f39
 8000f38:	f1b5 7fc0 	cmp.w	r5, #25165824	; 0x1800000
 8000f3c:	d1d3      	bne.n	8000ee6 <HAL_DMA_Init+0x8a>
 8000f3e:	2340      	movs	r3, #64	; 0x40
 8000f40:	6563      	str	r3, [r4, #84]	; 0x54
 8000f42:	2001      	movs	r0, #1
 8000f44:	e7e5      	b.n	8000f12 <HAL_DMA_Init+0xb6>
 8000f46:	2a02      	cmp	r2, #2
 8000f48:	d9f9      	bls.n	8000f3e <HAL_DMA_Init+0xe2>
 8000f4a:	2a03      	cmp	r2, #3
 8000f4c:	e7c8      	b.n	8000ee0 <HAL_DMA_Init+0x84>
 8000f4e:	2001      	movs	r0, #1
 8000f50:	bd70      	pop	{r4, r5, r6, pc}
 8000f52:	bf00      	nop
 8000f54:	f010803f 	.word	0xf010803f

08000f58 <HAL_DMA_Start_IT>:
 8000f58:	b570      	push	{r4, r5, r6, lr}
 8000f5a:	f890 4034 	ldrb.w	r4, [r0, #52]	; 0x34
 8000f5e:	2c01      	cmp	r4, #1
 8000f60:	d032      	beq.n	8000fc8 <HAL_DMA_Start_IT+0x70>
 8000f62:	2401      	movs	r4, #1
 8000f64:	f880 4034 	strb.w	r4, [r0, #52]	; 0x34
 8000f68:	f890 4035 	ldrb.w	r4, [r0, #53]	; 0x35
 8000f6c:	6d86      	ldr	r6, [r0, #88]	; 0x58
 8000f6e:	2c01      	cmp	r4, #1
 8000f70:	f04f 0500 	mov.w	r5, #0
 8000f74:	f04f 0402 	mov.w	r4, #2
 8000f78:	d124      	bne.n	8000fc4 <HAL_DMA_Start_IT+0x6c>
 8000f7a:	f880 4035 	strb.w	r4, [r0, #53]	; 0x35
 8000f7e:	6804      	ldr	r4, [r0, #0]
 8000f80:	6545      	str	r5, [r0, #84]	; 0x54
 8000f82:	6825      	ldr	r5, [r4, #0]
 8000f84:	f425 2580 	bic.w	r5, r5, #262144	; 0x40000
 8000f88:	6025      	str	r5, [r4, #0]
 8000f8a:	6063      	str	r3, [r4, #4]
 8000f8c:	6883      	ldr	r3, [r0, #8]
 8000f8e:	2b40      	cmp	r3, #64	; 0x40
 8000f90:	bf0e      	itee	eq
 8000f92:	60a2      	streq	r2, [r4, #8]
 8000f94:	60a1      	strne	r1, [r4, #8]
 8000f96:	60e2      	strne	r2, [r4, #12]
 8000f98:	6dc2      	ldr	r2, [r0, #92]	; 0x5c
 8000f9a:	bf08      	it	eq
 8000f9c:	60e1      	streq	r1, [r4, #12]
 8000f9e:	233f      	movs	r3, #63	; 0x3f
 8000fa0:	4093      	lsls	r3, r2
 8000fa2:	60b3      	str	r3, [r6, #8]
 8000fa4:	6823      	ldr	r3, [r4, #0]
 8000fa6:	f043 0316 	orr.w	r3, r3, #22
 8000faa:	6023      	str	r3, [r4, #0]
 8000fac:	6c03      	ldr	r3, [r0, #64]	; 0x40
 8000fae:	b11b      	cbz	r3, 8000fb8 <HAL_DMA_Start_IT+0x60>
 8000fb0:	6823      	ldr	r3, [r4, #0]
 8000fb2:	f043 0308 	orr.w	r3, r3, #8
 8000fb6:	6023      	str	r3, [r4, #0]
 8000fb8:	6823      	ldr	r3, [r4, #0]
 8000fba:	f043 0301 	orr.w	r3, r3, #1
 8000fbe:	6023      	str	r3, [r4, #0]
 8000fc0:	2000      	movs	r0, #0
 8000fc2:	bd70      	pop	{r4, r5, r6, pc}
 8000fc4:	f880 5034 	strb.w	r5, [r0, #52]	; 0x34
 8000fc8:	2002      	movs	r0, #2
 8000fca:	bd70      	pop	{r4, r5, r6, pc}

08000fcc <HAL_DMA_IRQHandler>:
 8000fcc:	b5f7      	push	{r0, r1, r2, r4, r5, r6, r7, lr}
 8000fce:	2300      	movs	r3, #0
 8000fd0:	9301      	str	r3, [sp, #4]
 8000fd2:	4b5a      	ldr	r3, [pc, #360]	; (800113c <HAL_DMA_IRQHandler+0x170>)
 8000fd4:	6d85      	ldr	r5, [r0, #88]	; 0x58
 8000fd6:	681f      	ldr	r7, [r3, #0]
 8000fd8:	6dc3      	ldr	r3, [r0, #92]	; 0x5c
 8000fda:	682e      	ldr	r6, [r5, #0]
 8000fdc:	2208      	movs	r2, #8
 8000fde:	409a      	lsls	r2, r3
 8000fe0:	4216      	tst	r6, r2
 8000fe2:	4604      	mov	r4, r0
 8000fe4:	d00c      	beq.n	8001000 <HAL_DMA_IRQHandler+0x34>
 8000fe6:	6801      	ldr	r1, [r0, #0]
 8000fe8:	6808      	ldr	r0, [r1, #0]
 8000fea:	0740      	lsls	r0, r0, #29
 8000fec:	d508      	bpl.n	8001000 <HAL_DMA_IRQHandler+0x34>
 8000fee:	6808      	ldr	r0, [r1, #0]
 8000ff0:	f020 0004 	bic.w	r0, r0, #4
 8000ff4:	6008      	str	r0, [r1, #0]
 8000ff6:	60aa      	str	r2, [r5, #8]
 8000ff8:	6d62      	ldr	r2, [r4, #84]	; 0x54
 8000ffa:	f042 0201 	orr.w	r2, r2, #1
 8000ffe:	6562      	str	r2, [r4, #84]	; 0x54
 8001000:	2201      	movs	r2, #1
 8001002:	409a      	lsls	r2, r3
 8001004:	4216      	tst	r6, r2
 8001006:	d008      	beq.n	800101a <HAL_DMA_IRQHandler+0x4e>
 8001008:	6821      	ldr	r1, [r4, #0]
 800100a:	6949      	ldr	r1, [r1, #20]
 800100c:	0609      	lsls	r1, r1, #24
 800100e:	bf41      	itttt	mi
 8001010:	60aa      	strmi	r2, [r5, #8]
 8001012:	6d62      	ldrmi	r2, [r4, #84]	; 0x54
 8001014:	f042 0202 	orrmi.w	r2, r2, #2
 8001018:	6562      	strmi	r2, [r4, #84]	; 0x54
 800101a:	2204      	movs	r2, #4
 800101c:	409a      	lsls	r2, r3
 800101e:	4216      	tst	r6, r2
 8001020:	d008      	beq.n	8001034 <HAL_DMA_IRQHandler+0x68>
 8001022:	6821      	ldr	r1, [r4, #0]
 8001024:	6809      	ldr	r1, [r1, #0]
 8001026:	0788      	lsls	r0, r1, #30
 8001028:	bf41      	itttt	mi
 800102a:	60aa      	strmi	r2, [r5, #8]
 800102c:	6d62      	ldrmi	r2, [r4, #84]	; 0x54
 800102e:	f042 0204 	orrmi.w	r2, r2, #4
 8001032:	6562      	strmi	r2, [r4, #84]	; 0x54
 8001034:	2210      	movs	r2, #16
 8001036:	409a      	lsls	r2, r3
 8001038:	4216      	tst	r6, r2
 800103a:	d010      	beq.n	800105e <HAL_DMA_IRQHandler+0x92>
 800103c:	6823      	ldr	r3, [r4, #0]
 800103e:	6819      	ldr	r1, [r3, #0]
 8001040:	0709      	lsls	r1, r1, #28
 8001042:	d50c      	bpl.n	800105e <HAL_DMA_IRQHandler+0x92>
 8001044:	60aa      	str	r2, [r5, #8]
 8001046:	681a      	ldr	r2, [r3, #0]
 8001048:	0350      	lsls	r0, r2, #13
 800104a:	d535      	bpl.n	80010b8 <HAL_DMA_IRQHandler+0xec>
 800104c:	681b      	ldr	r3, [r3, #0]
 800104e:	0319      	lsls	r1, r3, #12
 8001050:	d401      	bmi.n	8001056 <HAL_DMA_IRQHandler+0x8a>
 8001052:	6c23      	ldr	r3, [r4, #64]	; 0x40
 8001054:	e000      	b.n	8001058 <HAL_DMA_IRQHandler+0x8c>
 8001056:	6ca3      	ldr	r3, [r4, #72]	; 0x48
 8001058:	b10b      	cbz	r3, 800105e <HAL_DMA_IRQHandler+0x92>
 800105a:	4620      	mov	r0, r4
 800105c:	4798      	blx	r3
 800105e:	6de1      	ldr	r1, [r4, #92]	; 0x5c
 8001060:	2220      	movs	r2, #32
 8001062:	408a      	lsls	r2, r1
 8001064:	4216      	tst	r6, r2
 8001066:	d038      	beq.n	80010da <HAL_DMA_IRQHandler+0x10e>
 8001068:	6823      	ldr	r3, [r4, #0]
 800106a:	6818      	ldr	r0, [r3, #0]
 800106c:	06c6      	lsls	r6, r0, #27
 800106e:	d534      	bpl.n	80010da <HAL_DMA_IRQHandler+0x10e>
 8001070:	60aa      	str	r2, [r5, #8]
 8001072:	f894 2035 	ldrb.w	r2, [r4, #53]	; 0x35
 8001076:	2a05      	cmp	r2, #5
 8001078:	681a      	ldr	r2, [r3, #0]
 800107a:	d125      	bne.n	80010c8 <HAL_DMA_IRQHandler+0xfc>
 800107c:	f022 0216 	bic.w	r2, r2, #22
 8001080:	601a      	str	r2, [r3, #0]
 8001082:	695a      	ldr	r2, [r3, #20]
 8001084:	f022 0280 	bic.w	r2, r2, #128	; 0x80
 8001088:	615a      	str	r2, [r3, #20]
 800108a:	6c22      	ldr	r2, [r4, #64]	; 0x40
 800108c:	b90a      	cbnz	r2, 8001092 <HAL_DMA_IRQHandler+0xc6>
 800108e:	6ca2      	ldr	r2, [r4, #72]	; 0x48
 8001090:	b11a      	cbz	r2, 800109a <HAL_DMA_IRQHandler+0xce>
 8001092:	681a      	ldr	r2, [r3, #0]
 8001094:	f022 0208 	bic.w	r2, r2, #8
 8001098:	601a      	str	r2, [r3, #0]
 800109a:	233f      	movs	r3, #63	; 0x3f
 800109c:	408b      	lsls	r3, r1
 800109e:	60ab      	str	r3, [r5, #8]
 80010a0:	2300      	movs	r3, #0
 80010a2:	f884 3034 	strb.w	r3, [r4, #52]	; 0x34
 80010a6:	2301      	movs	r3, #1
 80010a8:	f884 3035 	strb.w	r3, [r4, #53]	; 0x35
 80010ac:	6d23      	ldr	r3, [r4, #80]	; 0x50
 80010ae:	b10b      	cbz	r3, 80010b4 <HAL_DMA_IRQHandler+0xe8>
 80010b0:	4620      	mov	r0, r4
 80010b2:	4798      	blx	r3
 80010b4:	b003      	add	sp, #12
 80010b6:	bdf0      	pop	{r4, r5, r6, r7, pc}
 80010b8:	681a      	ldr	r2, [r3, #0]
 80010ba:	05d2      	lsls	r2, r2, #23
 80010bc:	bf5e      	ittt	pl
 80010be:	681a      	ldrpl	r2, [r3, #0]
 80010c0:	f022 0208 	bicpl.w	r2, r2, #8
 80010c4:	601a      	strpl	r2, [r3, #0]
 80010c6:	e7c4      	b.n	8001052 <HAL_DMA_IRQHandler+0x86>
 80010c8:	0350      	lsls	r0, r2, #13
 80010ca:	d528      	bpl.n	800111e <HAL_DMA_IRQHandler+0x152>
 80010cc:	681b      	ldr	r3, [r3, #0]
 80010ce:	0319      	lsls	r1, r3, #12
 80010d0:	d432      	bmi.n	8001138 <HAL_DMA_IRQHandler+0x16c>
 80010d2:	6c63      	ldr	r3, [r4, #68]	; 0x44
 80010d4:	b10b      	cbz	r3, 80010da <HAL_DMA_IRQHandler+0x10e>
 80010d6:	4620      	mov	r0, r4
 80010d8:	4798      	blx	r3
 80010da:	6d63      	ldr	r3, [r4, #84]	; 0x54
 80010dc:	2b00      	cmp	r3, #0
 80010de:	d0e9      	beq.n	80010b4 <HAL_DMA_IRQHandler+0xe8>
 80010e0:	6d63      	ldr	r3, [r4, #84]	; 0x54
 80010e2:	07da      	lsls	r2, r3, #31
 80010e4:	d519      	bpl.n	800111a <HAL_DMA_IRQHandler+0x14e>
 80010e6:	2305      	movs	r3, #5
 80010e8:	6822      	ldr	r2, [r4, #0]
 80010ea:	f884 3035 	strb.w	r3, [r4, #53]	; 0x35
 80010ee:	6813      	ldr	r3, [r2, #0]
 80010f0:	f023 0301 	bic.w	r3, r3, #1
 80010f4:	6013      	str	r3, [r2, #0]
 80010f6:	f44f 5316 	mov.w	r3, #9600	; 0x2580
 80010fa:	fbb7 f7f3 	udiv	r7, r7, r3
 80010fe:	9b01      	ldr	r3, [sp, #4]
 8001100:	3301      	adds	r3, #1
 8001102:	429f      	cmp	r7, r3
 8001104:	9301      	str	r3, [sp, #4]
 8001106:	d302      	bcc.n	800110e <HAL_DMA_IRQHandler+0x142>
 8001108:	6813      	ldr	r3, [r2, #0]
 800110a:	07db      	lsls	r3, r3, #31
 800110c:	d4f7      	bmi.n	80010fe <HAL_DMA_IRQHandler+0x132>
 800110e:	2300      	movs	r3, #0
 8001110:	f884 3034 	strb.w	r3, [r4, #52]	; 0x34
 8001114:	2301      	movs	r3, #1
 8001116:	f884 3035 	strb.w	r3, [r4, #53]	; 0x35
 800111a:	6ce3      	ldr	r3, [r4, #76]	; 0x4c
 800111c:	e7c7      	b.n	80010ae <HAL_DMA_IRQHandler+0xe2>
 800111e:	681a      	ldr	r2, [r3, #0]
 8001120:	f412 7280 	ands.w	r2, r2, #256	; 0x100
 8001124:	d108      	bne.n	8001138 <HAL_DMA_IRQHandler+0x16c>
 8001126:	6819      	ldr	r1, [r3, #0]
 8001128:	f021 0110 	bic.w	r1, r1, #16
 800112c:	6019      	str	r1, [r3, #0]
 800112e:	2301      	movs	r3, #1
 8001130:	f884 2034 	strb.w	r2, [r4, #52]	; 0x34
 8001134:	f884 3035 	strb.w	r3, [r4, #53]	; 0x35
 8001138:	6be3      	ldr	r3, [r4, #60]	; 0x3c
 800113a:	e7cb      	b.n	80010d4 <HAL_DMA_IRQHandler+0x108>
 800113c:	20000008 	.word	0x20000008

08001140 <HAL_GPIO_Init>:
 8001140:	e92d 4ff0 	stmdb	sp!, {r4, r5, r6, r7, r8, r9, sl, fp, lr}
 8001144:	b085      	sub	sp, #20
 8001146:	680b      	ldr	r3, [r1, #0]
 8001148:	f8df 81ac 	ldr.w	r8, [pc, #428]	; 80012f8 <HAL_GPIO_Init+0x1b8>
 800114c:	4a68      	ldr	r2, [pc, #416]	; (80012f0 <HAL_GPIO_Init+0x1b0>)
 800114e:	f8df 91ac 	ldr.w	r9, [pc, #428]	; 80012fc <HAL_GPIO_Init+0x1bc>
 8001152:	9301      	str	r3, [sp, #4]
 8001154:	2300      	movs	r3, #0
 8001156:	2401      	movs	r4, #1
 8001158:	9d01      	ldr	r5, [sp, #4]
 800115a:	409c      	lsls	r4, r3
 800115c:	4025      	ands	r5, r4
 800115e:	42ac      	cmp	r4, r5
 8001160:	f040 80b0 	bne.w	80012c4 <HAL_GPIO_Init+0x184>
 8001164:	684c      	ldr	r4, [r1, #4]
 8001166:	f024 0c10 	bic.w	ip, r4, #16
 800116a:	f10c 36ff 	add.w	r6, ip, #4294967295	; 0xffffffff
 800116e:	2e01      	cmp	r6, #1
 8001170:	ea4f 0e43 	mov.w	lr, r3, lsl #1
 8001174:	d812      	bhi.n	800119c <HAL_GPIO_Init+0x5c>
 8001176:	6887      	ldr	r7, [r0, #8]
 8001178:	2603      	movs	r6, #3
 800117a:	fa06 f60e 	lsl.w	r6, r6, lr
 800117e:	ea27 0706 	bic.w	r7, r7, r6
 8001182:	68ce      	ldr	r6, [r1, #12]
 8001184:	fa06 f60e 	lsl.w	r6, r6, lr
 8001188:	433e      	orrs	r6, r7
 800118a:	6086      	str	r6, [r0, #8]
 800118c:	6847      	ldr	r7, [r0, #4]
 800118e:	f3c4 1600 	ubfx	r6, r4, #4, #1
 8001192:	ea27 0705 	bic.w	r7, r7, r5
 8001196:	409e      	lsls	r6, r3
 8001198:	433e      	orrs	r6, r7
 800119a:	6046      	str	r6, [r0, #4]
 800119c:	2603      	movs	r6, #3
 800119e:	68c7      	ldr	r7, [r0, #12]
 80011a0:	fa06 f60e 	lsl.w	r6, r6, lr
 80011a4:	43f6      	mvns	r6, r6
 80011a6:	ea07 0a06 	and.w	sl, r7, r6
 80011aa:	688f      	ldr	r7, [r1, #8]
 80011ac:	fa07 f70e 	lsl.w	r7, r7, lr
 80011b0:	ea47 070a 	orr.w	r7, r7, sl
 80011b4:	f1bc 0f02 	cmp.w	ip, #2
 80011b8:	60c7      	str	r7, [r0, #12]
 80011ba:	d116      	bne.n	80011ea <HAL_GPIO_Init+0xaa>
 80011bc:	ea4f 0ad3 	mov.w	sl, r3, lsr #3
 80011c0:	eb00 0a8a 	add.w	sl, r0, sl, lsl #2
 80011c4:	f003 0b07 	and.w	fp, r3, #7
 80011c8:	f8da 7020 	ldr.w	r7, [sl, #32]
 80011cc:	ea4f 0b8b 	mov.w	fp, fp, lsl #2
 80011d0:	f04f 0c0f 	mov.w	ip, #15
 80011d4:	fa0c fc0b 	lsl.w	ip, ip, fp
 80011d8:	ea27 0c0c 	bic.w	ip, r7, ip
 80011dc:	690f      	ldr	r7, [r1, #16]
 80011de:	fa07 f70b 	lsl.w	r7, r7, fp
 80011e2:	ea47 070c 	orr.w	r7, r7, ip
 80011e6:	f8ca 7020 	str.w	r7, [sl, #32]
 80011ea:	6807      	ldr	r7, [r0, #0]
 80011ec:	403e      	ands	r6, r7
 80011ee:	f004 0703 	and.w	r7, r4, #3
 80011f2:	fa07 fe0e 	lsl.w	lr, r7, lr
 80011f6:	ea4e 0606 	orr.w	r6, lr, r6
 80011fa:	6006      	str	r6, [r0, #0]
 80011fc:	00e6      	lsls	r6, r4, #3
 80011fe:	d561      	bpl.n	80012c4 <HAL_GPIO_Init+0x184>
 8001200:	f04f 0b00 	mov.w	fp, #0
 8001204:	f8cd b00c 	str.w	fp, [sp, #12]
 8001208:	f8d8 7044 	ldr.w	r7, [r8, #68]	; 0x44
 800120c:	4e39      	ldr	r6, [pc, #228]	; (80012f4 <HAL_GPIO_Init+0x1b4>)
 800120e:	f447 4780 	orr.w	r7, r7, #16384	; 0x4000
 8001212:	f8c8 7044 	str.w	r7, [r8, #68]	; 0x44
 8001216:	f8d8 7044 	ldr.w	r7, [r8, #68]	; 0x44
 800121a:	f407 4780 	and.w	r7, r7, #16384	; 0x4000
 800121e:	9703      	str	r7, [sp, #12]
 8001220:	9f03      	ldr	r7, [sp, #12]
 8001222:	f023 0703 	bic.w	r7, r3, #3
 8001226:	f107 4780 	add.w	r7, r7, #1073741824	; 0x40000000
 800122a:	f507 379c 	add.w	r7, r7, #79872	; 0x13800
 800122e:	f003 0c03 	and.w	ip, r3, #3
 8001232:	f8d7 a008 	ldr.w	sl, [r7, #8]
 8001236:	ea4f 0c8c 	mov.w	ip, ip, lsl #2
 800123a:	f04f 0e0f 	mov.w	lr, #15
 800123e:	fa0e fe0c 	lsl.w	lr, lr, ip
 8001242:	42b0      	cmp	r0, r6
 8001244:	ea2a 0e0e 	bic.w	lr, sl, lr
 8001248:	d043      	beq.n	80012d2 <HAL_GPIO_Init+0x192>
 800124a:	f506 6680 	add.w	r6, r6, #1024	; 0x400
 800124e:	42b0      	cmp	r0, r6
 8001250:	d041      	beq.n	80012d6 <HAL_GPIO_Init+0x196>
 8001252:	f506 6680 	add.w	r6, r6, #1024	; 0x400
 8001256:	42b0      	cmp	r0, r6
 8001258:	d03f      	beq.n	80012da <HAL_GPIO_Init+0x19a>
 800125a:	f506 6680 	add.w	r6, r6, #1024	; 0x400
 800125e:	42b0      	cmp	r0, r6
 8001260:	d03d      	beq.n	80012de <HAL_GPIO_Init+0x19e>
 8001262:	f506 6680 	add.w	r6, r6, #1024	; 0x400
 8001266:	42b0      	cmp	r0, r6
 8001268:	d03b      	beq.n	80012e2 <HAL_GPIO_Init+0x1a2>
 800126a:	4548      	cmp	r0, r9
 800126c:	d03b      	beq.n	80012e6 <HAL_GPIO_Init+0x1a6>
 800126e:	f506 6600 	add.w	r6, r6, #2048	; 0x800
 8001272:	42b0      	cmp	r0, r6
 8001274:	d039      	beq.n	80012ea <HAL_GPIO_Init+0x1aa>
 8001276:	f506 6680 	add.w	r6, r6, #1024	; 0x400
 800127a:	42b0      	cmp	r0, r6
 800127c:	bf14      	ite	ne
 800127e:	2608      	movne	r6, #8
 8001280:	2607      	moveq	r6, #7
 8001282:	fa06 f60c 	lsl.w	r6, r6, ip
 8001286:	ea46 060e 	orr.w	r6, r6, lr
 800128a:	60be      	str	r6, [r7, #8]
 800128c:	6816      	ldr	r6, [r2, #0]
 800128e:	43ef      	mvns	r7, r5
 8001290:	f414 3f80 	tst.w	r4, #65536	; 0x10000
 8001294:	bf0c      	ite	eq
 8001296:	403e      	andeq	r6, r7
 8001298:	432e      	orrne	r6, r5
 800129a:	6016      	str	r6, [r2, #0]
 800129c:	6856      	ldr	r6, [r2, #4]
 800129e:	f414 3f00 	tst.w	r4, #131072	; 0x20000
 80012a2:	bf0c      	ite	eq
 80012a4:	403e      	andeq	r6, r7
 80012a6:	432e      	orrne	r6, r5
 80012a8:	6056      	str	r6, [r2, #4]
 80012aa:	6896      	ldr	r6, [r2, #8]
 80012ac:	f414 1f80 	tst.w	r4, #1048576	; 0x100000
 80012b0:	bf0c      	ite	eq
 80012b2:	403e      	andeq	r6, r7
 80012b4:	432e      	orrne	r6, r5
 80012b6:	6096      	str	r6, [r2, #8]
 80012b8:	68d6      	ldr	r6, [r2, #12]
 80012ba:	02a4      	lsls	r4, r4, #10
 80012bc:	bf54      	ite	pl
 80012be:	403e      	andpl	r6, r7
 80012c0:	432e      	orrmi	r6, r5
 80012c2:	60d6      	str	r6, [r2, #12]
 80012c4:	3301      	adds	r3, #1
 80012c6:	2b10      	cmp	r3, #16
 80012c8:	f47f af45 	bne.w	8001156 <HAL_GPIO_Init+0x16>
 80012cc:	b005      	add	sp, #20
 80012ce:	e8bd 8ff0 	ldmia.w	sp!, {r4, r5, r6, r7, r8, r9, sl, fp, pc}
 80012d2:	465e      	mov	r6, fp
 80012d4:	e7d5      	b.n	8001282 <HAL_GPIO_Init+0x142>
 80012d6:	2601      	movs	r6, #1
 80012d8:	e7d3      	b.n	8001282 <HAL_GPIO_Init+0x142>
 80012da:	2602      	movs	r6, #2
 80012dc:	e7d1      	b.n	8001282 <HAL_GPIO_Init+0x142>
 80012de:	2603      	movs	r6, #3
 80012e0:	e7cf      	b.n	8001282 <HAL_GPIO_Init+0x142>
 80012e2:	2604      	movs	r6, #4
 80012e4:	e7cd      	b.n	8001282 <HAL_GPIO_Init+0x142>
 80012e6:	2605      	movs	r6, #5
 80012e8:	e7cb      	b.n	8001282 <HAL_GPIO_Init+0x142>
 80012ea:	2606      	movs	r6, #6
 80012ec:	e7c9      	b.n	8001282 <HAL_GPIO_Init+0x142>
 80012ee:	bf00      	nop
 80012f0:	40013c00 	.word	0x40013c00
 80012f4:	40020000 	.word	0x40020000
 80012f8:	40023800 	.word	0x40023800
 80012fc:	40021400 	.word	0x40021400

08001300 <HAL_GPIO_WritePin>:
 8001300:	b10a      	cbz	r2, 8001306 <HAL_GPIO_WritePin+0x6>
 8001302:	6181      	str	r1, [r0, #24]
 8001304:	4770      	bx	lr
 8001306:	0409      	lsls	r1, r1, #16
 8001308:	e7fb      	b.n	8001302 <HAL_GPIO_WritePin+0x2>

0800130a <I2C_IsAcknowledgeFailed>:
 800130a:	6801      	ldr	r1, [r0, #0]
 800130c:	694b      	ldr	r3, [r1, #20]
 800130e:	f413 6380 	ands.w	r3, r3, #1024	; 0x400
 8001312:	f04f 0200 	mov.w	r2, #0
 8001316:	d010      	beq.n	800133a <I2C_IsAcknowledgeFailed+0x30>
 8001318:	f46f 6380 	mvn.w	r3, #1024	; 0x400
 800131c:	614b      	str	r3, [r1, #20]
 800131e:	2320      	movs	r3, #32
 8001320:	6302      	str	r2, [r0, #48]	; 0x30
 8001322:	f880 303d 	strb.w	r3, [r0, #61]	; 0x3d
 8001326:	f880 203e 	strb.w	r2, [r0, #62]	; 0x3e
 800132a:	6c03      	ldr	r3, [r0, #64]	; 0x40
 800132c:	f880 203c 	strb.w	r2, [r0, #60]	; 0x3c
 8001330:	f043 0304 	orr.w	r3, r3, #4
 8001334:	6403      	str	r3, [r0, #64]	; 0x40
 8001336:	2001      	movs	r0, #1
 8001338:	4770      	bx	lr
 800133a:	4618      	mov	r0, r3
 800133c:	4770      	bx	lr

0800133e <I2C_WaitOnMasterAddressFlagUntilTimeout>:
 800133e:	e92d 43f8 	stmdb	sp!, {r3, r4, r5, r6, r7, r8, r9, lr}
 8001342:	4604      	mov	r4, r0
 8001344:	4617      	mov	r7, r2
 8001346:	4699      	mov	r9, r3
 8001348:	f3c1 4807 	ubfx	r8, r1, #16, #8
 800134c:	b28e      	uxth	r6, r1
 800134e:	6825      	ldr	r5, [r4, #0]
 8001350:	f1b8 0f01 	cmp.w	r8, #1
 8001354:	bf0c      	ite	eq
 8001356:	696b      	ldreq	r3, [r5, #20]
 8001358:	69ab      	ldrne	r3, [r5, #24]
 800135a:	ea36 0303 	bics.w	r3, r6, r3
 800135e:	bf14      	ite	ne
 8001360:	2001      	movne	r0, #1
 8001362:	2000      	moveq	r0, #0
 8001364:	b908      	cbnz	r0, 800136a <I2C_WaitOnMasterAddressFlagUntilTimeout+0x2c>
 8001366:	e8bd 83f8 	ldmia.w	sp!, {r3, r4, r5, r6, r7, r8, r9, pc}
 800136a:	696b      	ldr	r3, [r5, #20]
 800136c:	055a      	lsls	r2, r3, #21
 800136e:	d516      	bpl.n	800139e <I2C_WaitOnMasterAddressFlagUntilTimeout+0x60>
 8001370:	682b      	ldr	r3, [r5, #0]
 8001372:	f443 7300 	orr.w	r3, r3, #512	; 0x200
 8001376:	602b      	str	r3, [r5, #0]
 8001378:	f46f 6380 	mvn.w	r3, #1024	; 0x400
 800137c:	616b      	str	r3, [r5, #20]
 800137e:	2220      	movs	r2, #32
 8001380:	2300      	movs	r3, #0
 8001382:	6323      	str	r3, [r4, #48]	; 0x30
 8001384:	f884 203d 	strb.w	r2, [r4, #61]	; 0x3d
 8001388:	f884 303e 	strb.w	r3, [r4, #62]	; 0x3e
 800138c:	6c22      	ldr	r2, [r4, #64]	; 0x40
 800138e:	f042 0204 	orr.w	r2, r2, #4
 8001392:	6422      	str	r2, [r4, #64]	; 0x40
 8001394:	f884 303c 	strb.w	r3, [r4, #60]	; 0x3c
 8001398:	2001      	movs	r0, #1
 800139a:	e8bd 83f8 	ldmia.w	sp!, {r3, r4, r5, r6, r7, r8, r9, pc}
 800139e:	1c7b      	adds	r3, r7, #1
 80013a0:	d0d5      	beq.n	800134e <I2C_WaitOnMasterAddressFlagUntilTimeout+0x10>
 80013a2:	f7ff fcd5 	bl	8000d50 <HAL_GetTick>
 80013a6:	eba0 0009 	sub.w	r0, r0, r9
 80013aa:	4287      	cmp	r7, r0
 80013ac:	d301      	bcc.n	80013b2 <I2C_WaitOnMasterAddressFlagUntilTimeout+0x74>
 80013ae:	2f00      	cmp	r7, #0
 80013b0:	d1cd      	bne.n	800134e <I2C_WaitOnMasterAddressFlagUntilTimeout+0x10>
 80013b2:	2300      	movs	r3, #0
 80013b4:	2220      	movs	r2, #32
 80013b6:	6323      	str	r3, [r4, #48]	; 0x30
 80013b8:	f884 203d 	strb.w	r2, [r4, #61]	; 0x3d
 80013bc:	f884 303e 	strb.w	r3, [r4, #62]	; 0x3e
 80013c0:	6c22      	ldr	r2, [r4, #64]	; 0x40
 80013c2:	f042 0220 	orr.w	r2, r2, #32
 80013c6:	e7e4      	b.n	8001392 <I2C_WaitOnMasterAddressFlagUntilTimeout+0x54>

080013c8 <I2C_WaitOnBTFFlagUntilTimeout>:
 80013c8:	b570      	push	{r4, r5, r6, lr}
 80013ca:	4604      	mov	r4, r0
 80013cc:	460d      	mov	r5, r1
 80013ce:	4616      	mov	r6, r2
 80013d0:	6823      	ldr	r3, [r4, #0]
 80013d2:	695b      	ldr	r3, [r3, #20]
 80013d4:	075b      	lsls	r3, r3, #29
 80013d6:	d501      	bpl.n	80013dc <I2C_WaitOnBTFFlagUntilTimeout+0x14>
 80013d8:	2000      	movs	r0, #0
 80013da:	bd70      	pop	{r4, r5, r6, pc}
 80013dc:	4620      	mov	r0, r4
 80013de:	f7ff ff94 	bl	800130a <I2C_IsAcknowledgeFailed>
 80013e2:	b9a8      	cbnz	r0, 8001410 <I2C_WaitOnBTFFlagUntilTimeout+0x48>
 80013e4:	1c6a      	adds	r2, r5, #1
 80013e6:	d0f3      	beq.n	80013d0 <I2C_WaitOnBTFFlagUntilTimeout+0x8>
 80013e8:	f7ff fcb2 	bl	8000d50 <HAL_GetTick>
 80013ec:	1b80      	subs	r0, r0, r6
 80013ee:	4285      	cmp	r5, r0
 80013f0:	d301      	bcc.n	80013f6 <I2C_WaitOnBTFFlagUntilTimeout+0x2e>
 80013f2:	2d00      	cmp	r5, #0
 80013f4:	d1ec      	bne.n	80013d0 <I2C_WaitOnBTFFlagUntilTimeout+0x8>
 80013f6:	2300      	movs	r3, #0
 80013f8:	2220      	movs	r2, #32
 80013fa:	6323      	str	r3, [r4, #48]	; 0x30
 80013fc:	f884 203d 	strb.w	r2, [r4, #61]	; 0x3d
 8001400:	f884 303e 	strb.w	r3, [r4, #62]	; 0x3e
 8001404:	6c22      	ldr	r2, [r4, #64]	; 0x40
 8001406:	f884 303c 	strb.w	r3, [r4, #60]	; 0x3c
 800140a:	f042 0220 	orr.w	r2, r2, #32
 800140e:	6422      	str	r2, [r4, #64]	; 0x40
 8001410:	2001      	movs	r0, #1
 8001412:	bd70      	pop	{r4, r5, r6, pc}

08001414 <I2C_WaitOnRXNEFlagUntilTimeout>:
 8001414:	b570      	push	{r4, r5, r6, lr}
 8001416:	4604      	mov	r4, r0
 8001418:	460d      	mov	r5, r1
 800141a:	4616      	mov	r6, r2
 800141c:	6820      	ldr	r0, [r4, #0]
 800141e:	6943      	ldr	r3, [r0, #20]
 8001420:	f013 0340 	ands.w	r3, r3, #64	; 0x40
 8001424:	d001      	beq.n	800142a <I2C_WaitOnRXNEFlagUntilTimeout+0x16>
 8001426:	2000      	movs	r0, #0
 8001428:	bd70      	pop	{r4, r5, r6, pc}
 800142a:	6942      	ldr	r2, [r0, #20]
 800142c:	06d2      	lsls	r2, r2, #27
 800142e:	d50e      	bpl.n	800144e <I2C_WaitOnRXNEFlagUntilTimeout+0x3a>
 8001430:	f06f 0210 	mvn.w	r2, #16
 8001434:	6142      	str	r2, [r0, #20]
 8001436:	2220      	movs	r2, #32
 8001438:	6323      	str	r3, [r4, #48]	; 0x30
 800143a:	f884 203d 	strb.w	r2, [r4, #61]	; 0x3d
 800143e:	f884 303e 	strb.w	r3, [r4, #62]	; 0x3e
 8001442:	6c22      	ldr	r2, [r4, #64]	; 0x40
 8001444:	6422      	str	r2, [r4, #64]	; 0x40
 8001446:	f884 303c 	strb.w	r3, [r4, #60]	; 0x3c
 800144a:	2001      	movs	r0, #1
 800144c:	bd70      	pop	{r4, r5, r6, pc}
 800144e:	f7ff fc7f 	bl	8000d50 <HAL_GetTick>
 8001452:	1b80      	subs	r0, r0, r6
 8001454:	42a8      	cmp	r0, r5
 8001456:	d801      	bhi.n	800145c <I2C_WaitOnRXNEFlagUntilTimeout+0x48>
 8001458:	2d00      	cmp	r5, #0
 800145a:	d1df      	bne.n	800141c <I2C_WaitOnRXNEFlagUntilTimeout+0x8>
 800145c:	2300      	movs	r3, #0
 800145e:	2220      	movs	r2, #32
 8001460:	6323      	str	r3, [r4, #48]	; 0x30
 8001462:	f884 203d 	strb.w	r2, [r4, #61]	; 0x3d
 8001466:	f884 303e 	strb.w	r3, [r4, #62]	; 0x3e
 800146a:	6c22      	ldr	r2, [r4, #64]	; 0x40
 800146c:	f042 0220 	orr.w	r2, r2, #32
 8001470:	e7e8      	b.n	8001444 <I2C_WaitOnRXNEFlagUntilTimeout+0x30>

08001472 <I2C_WaitOnFlagUntilTimeout>:
 8001472:	e92d 43f8 	stmdb	sp!, {r3, r4, r5, r6, r7, r8, r9, lr}
 8001476:	9e08      	ldr	r6, [sp, #32]
 8001478:	4604      	mov	r4, r0
 800147a:	4690      	mov	r8, r2
 800147c:	461f      	mov	r7, r3
 800147e:	f3c1 4907 	ubfx	r9, r1, #16, #8
 8001482:	b28d      	uxth	r5, r1
 8001484:	6823      	ldr	r3, [r4, #0]
 8001486:	f1b9 0f01 	cmp.w	r9, #1
 800148a:	bf0c      	ite	eq
 800148c:	695b      	ldreq	r3, [r3, #20]
 800148e:	699b      	ldrne	r3, [r3, #24]
 8001490:	ea35 0303 	bics.w	r3, r5, r3
 8001494:	bf0c      	ite	eq
 8001496:	2301      	moveq	r3, #1
 8001498:	2300      	movne	r3, #0
 800149a:	4543      	cmp	r3, r8
 800149c:	d002      	beq.n	80014a4 <I2C_WaitOnFlagUntilTimeout+0x32>
 800149e:	2000      	movs	r0, #0
 80014a0:	e8bd 83f8 	ldmia.w	sp!, {r3, r4, r5, r6, r7, r8, r9, pc}
 80014a4:	1c7b      	adds	r3, r7, #1
 80014a6:	d0ed      	beq.n	8001484 <I2C_WaitOnFlagUntilTimeout+0x12>
 80014a8:	f7ff fc52 	bl	8000d50 <HAL_GetTick>
 80014ac:	1b80      	subs	r0, r0, r6
 80014ae:	4287      	cmp	r7, r0
 80014b0:	d301      	bcc.n	80014b6 <I2C_WaitOnFlagUntilTimeout+0x44>
 80014b2:	2f00      	cmp	r7, #0
 80014b4:	d1e6      	bne.n	8001484 <I2C_WaitOnFlagUntilTimeout+0x12>
 80014b6:	2300      	movs	r3, #0
 80014b8:	2220      	movs	r2, #32
 80014ba:	6323      	str	r3, [r4, #48]	; 0x30
 80014bc:	f884 203d 	strb.w	r2, [r4, #61]	; 0x3d
 80014c0:	f884 303e 	strb.w	r3, [r4, #62]	; 0x3e
 80014c4:	6c22      	ldr	r2, [r4, #64]	; 0x40
 80014c6:	f884 303c 	strb.w	r3, [r4, #60]	; 0x3c
 80014ca:	f042 0220 	orr.w	r2, r2, #32
 80014ce:	6422      	str	r2, [r4, #64]	; 0x40
 80014d0:	2001      	movs	r0, #1
 80014d2:	e8bd 83f8 	ldmia.w	sp!, {r3, r4, r5, r6, r7, r8, r9, pc}

080014d6 <I2C_WaitOnTXEFlagUntilTimeout>:
 80014d6:	b570      	push	{r4, r5, r6, lr}
 80014d8:	4604      	mov	r4, r0
 80014da:	460d      	mov	r5, r1
 80014dc:	4616      	mov	r6, r2
 80014de:	6823      	ldr	r3, [r4, #0]
 80014e0:	695b      	ldr	r3, [r3, #20]
 80014e2:	061b      	lsls	r3, r3, #24
 80014e4:	d501      	bpl.n	80014ea <I2C_WaitOnTXEFlagUntilTimeout+0x14>
 80014e6:	2000      	movs	r0, #0
 80014e8:	bd70      	pop	{r4, r5, r6, pc}
 80014ea:	4620      	mov	r0, r4
 80014ec:	f7ff ff0d 	bl	800130a <I2C_IsAcknowledgeFailed>
 80014f0:	b9a8      	cbnz	r0, 800151e <I2C_WaitOnTXEFlagUntilTimeout+0x48>
 80014f2:	1c6a      	adds	r2, r5, #1
 80014f4:	d0f3      	beq.n	80014de <I2C_WaitOnTXEFlagUntilTimeout+0x8>
 80014f6:	f7ff fc2b 	bl	8000d50 <HAL_GetTick>
 80014fa:	1b80      	subs	r0, r0, r6
 80014fc:	4285      	cmp	r5, r0
 80014fe:	d301      	bcc.n	8001504 <I2C_WaitOnTXEFlagUntilTimeout+0x2e>
 8001500:	2d00      	cmp	r5, #0
 8001502:	d1ec      	bne.n	80014de <I2C_WaitOnTXEFlagUntilTimeout+0x8>
 8001504:	2300      	movs	r3, #0
 8001506:	2220      	movs	r2, #32
 8001508:	6323      	str	r3, [r4, #48]	; 0x30
 800150a:	f884 203d 	strb.w	r2, [r4, #61]	; 0x3d
 800150e:	f884 303e 	strb.w	r3, [r4, #62]	; 0x3e
 8001512:	6c22      	ldr	r2, [r4, #64]	; 0x40
 8001514:	f884 303c 	strb.w	r3, [r4, #60]	; 0x3c
 8001518:	f042 0220 	orr.w	r2, r2, #32
 800151c:	6422      	str	r2, [r4, #64]	; 0x40
 800151e:	2001      	movs	r0, #1
 8001520:	bd70      	pop	{r4, r5, r6, pc}
	...

08001524 <HAL_I2C_Init>:
 8001524:	b570      	push	{r4, r5, r6, lr}
 8001526:	4604      	mov	r4, r0
 8001528:	b908      	cbnz	r0, 800152e <HAL_I2C_Init+0xa>
 800152a:	2001      	movs	r0, #1
 800152c:	bd70      	pop	{r4, r5, r6, pc}
 800152e:	f890 303d 	ldrb.w	r3, [r0, #61]	; 0x3d
 8001532:	f003 02ff 	and.w	r2, r3, #255	; 0xff
 8001536:	b91b      	cbnz	r3, 8001540 <HAL_I2C_Init+0x1c>
 8001538:	f880 203c 	strb.w	r2, [r0, #60]	; 0x3c
 800153c:	f001 fee6 	bl	800330c <HAL_I2C_MspInit>
 8001540:	2324      	movs	r3, #36	; 0x24
 8001542:	f884 303d 	strb.w	r3, [r4, #61]	; 0x3d
 8001546:	6823      	ldr	r3, [r4, #0]
 8001548:	681a      	ldr	r2, [r3, #0]
 800154a:	f022 0201 	bic.w	r2, r2, #1
 800154e:	601a      	str	r2, [r3, #0]
 8001550:	681a      	ldr	r2, [r3, #0]
 8001552:	f442 4200 	orr.w	r2, r2, #32768	; 0x8000
 8001556:	601a      	str	r2, [r3, #0]
 8001558:	681a      	ldr	r2, [r3, #0]
 800155a:	f422 4200 	bic.w	r2, r2, #32768	; 0x8000
 800155e:	601a      	str	r2, [r3, #0]
 8001560:	f001 f8c8 	bl	80026f4 <HAL_RCC_GetPCLK1Freq>
 8001564:	6865      	ldr	r5, [r4, #4]
 8001566:	4b41      	ldr	r3, [pc, #260]	; (800166c <HAL_I2C_Init+0x148>)
 8001568:	429d      	cmp	r5, r3
 800156a:	d84d      	bhi.n	8001608 <HAL_I2C_Init+0xe4>
 800156c:	4b40      	ldr	r3, [pc, #256]	; (8001670 <HAL_I2C_Init+0x14c>)
 800156e:	4298      	cmp	r0, r3
 8001570:	d9db      	bls.n	800152a <HAL_I2C_Init+0x6>
 8001572:	6822      	ldr	r2, [r4, #0]
 8001574:	493f      	ldr	r1, [pc, #252]	; (8001674 <HAL_I2C_Init+0x150>)
 8001576:	6853      	ldr	r3, [r2, #4]
 8001578:	fbb0 f1f1 	udiv	r1, r0, r1
 800157c:	f023 033f 	bic.w	r3, r3, #63	; 0x3f
 8001580:	430b      	orrs	r3, r1
 8001582:	6053      	str	r3, [r2, #4]
 8001584:	6a13      	ldr	r3, [r2, #32]
 8001586:	f023 033f 	bic.w	r3, r3, #63	; 0x3f
 800158a:	3101      	adds	r1, #1
 800158c:	4319      	orrs	r1, r3
 800158e:	6211      	str	r1, [r2, #32]
 8001590:	69d1      	ldr	r1, [r2, #28]
 8001592:	4b36      	ldr	r3, [pc, #216]	; (800166c <HAL_I2C_Init+0x148>)
 8001594:	f421 414f 	bic.w	r1, r1, #52992	; 0xcf00
 8001598:	429d      	cmp	r5, r3
 800159a:	f021 01ff 	bic.w	r1, r1, #255	; 0xff
 800159e:	f100 30ff 	add.w	r0, r0, #4294967295	; 0xffffffff
 80015a2:	d848      	bhi.n	8001636 <HAL_I2C_Init+0x112>
 80015a4:	006d      	lsls	r5, r5, #1
 80015a6:	fbb0 f0f5 	udiv	r0, r0, r5
 80015aa:	3001      	adds	r0, #1
 80015ac:	f3c0 030b 	ubfx	r3, r0, #0, #12
 80015b0:	2b04      	cmp	r3, #4
 80015b2:	bf38      	it	cc
 80015b4:	2304      	movcc	r3, #4
 80015b6:	430b      	orrs	r3, r1
 80015b8:	61d3      	str	r3, [r2, #28]
 80015ba:	6811      	ldr	r1, [r2, #0]
 80015bc:	6a20      	ldr	r0, [r4, #32]
 80015be:	69e3      	ldr	r3, [r4, #28]
 80015c0:	f021 01c0 	bic.w	r1, r1, #192	; 0xc0
 80015c4:	4303      	orrs	r3, r0
 80015c6:	430b      	orrs	r3, r1
 80015c8:	6013      	str	r3, [r2, #0]
 80015ca:	6891      	ldr	r1, [r2, #8]
 80015cc:	68e0      	ldr	r0, [r4, #12]
 80015ce:	6923      	ldr	r3, [r4, #16]
 80015d0:	f421 4103 	bic.w	r1, r1, #33536	; 0x8300
 80015d4:	4303      	orrs	r3, r0
 80015d6:	f021 01ff 	bic.w	r1, r1, #255	; 0xff
 80015da:	430b      	orrs	r3, r1
 80015dc:	6093      	str	r3, [r2, #8]
 80015de:	68d1      	ldr	r1, [r2, #12]
 80015e0:	69a0      	ldr	r0, [r4, #24]
 80015e2:	6963      	ldr	r3, [r4, #20]
 80015e4:	f021 01ff 	bic.w	r1, r1, #255	; 0xff
 80015e8:	4303      	orrs	r3, r0
 80015ea:	430b      	orrs	r3, r1
 80015ec:	60d3      	str	r3, [r2, #12]
 80015ee:	6813      	ldr	r3, [r2, #0]
 80015f0:	f043 0301 	orr.w	r3, r3, #1
 80015f4:	6013      	str	r3, [r2, #0]
 80015f6:	2000      	movs	r0, #0
 80015f8:	2320      	movs	r3, #32
 80015fa:	6420      	str	r0, [r4, #64]	; 0x40
 80015fc:	f884 303d 	strb.w	r3, [r4, #61]	; 0x3d
 8001600:	6320      	str	r0, [r4, #48]	; 0x30
 8001602:	f884 003e 	strb.w	r0, [r4, #62]	; 0x3e
 8001606:	bd70      	pop	{r4, r5, r6, pc}
 8001608:	4b1b      	ldr	r3, [pc, #108]	; (8001678 <HAL_I2C_Init+0x154>)
 800160a:	4298      	cmp	r0, r3
 800160c:	d98d      	bls.n	800152a <HAL_I2C_Init+0x6>
 800160e:	6822      	ldr	r2, [r4, #0]
 8001610:	4e18      	ldr	r6, [pc, #96]	; (8001674 <HAL_I2C_Init+0x150>)
 8001612:	6853      	ldr	r3, [r2, #4]
 8001614:	fbb0 f6f6 	udiv	r6, r0, r6
 8001618:	f023 033f 	bic.w	r3, r3, #63	; 0x3f
 800161c:	4333      	orrs	r3, r6
 800161e:	6053      	str	r3, [r2, #4]
 8001620:	6a13      	ldr	r3, [r2, #32]
 8001622:	f44f 7196 	mov.w	r1, #300	; 0x12c
 8001626:	4371      	muls	r1, r6
 8001628:	f023 033f 	bic.w	r3, r3, #63	; 0x3f
 800162c:	f44f 767a 	mov.w	r6, #1000	; 0x3e8
 8001630:	fbb1 f1f6 	udiv	r1, r1, r6
 8001634:	e7a9      	b.n	800158a <HAL_I2C_Init+0x66>
 8001636:	68a3      	ldr	r3, [r4, #8]
 8001638:	b953      	cbnz	r3, 8001650 <HAL_I2C_Init+0x12c>
 800163a:	eb05 0345 	add.w	r3, r5, r5, lsl #1
 800163e:	fbb0 f0f3 	udiv	r0, r0, r3
 8001642:	1c43      	adds	r3, r0, #1
 8001644:	f3c3 030b 	ubfx	r3, r3, #0, #12
 8001648:	b16b      	cbz	r3, 8001666 <HAL_I2C_Init+0x142>
 800164a:	f443 4300 	orr.w	r3, r3, #32768	; 0x8000
 800164e:	e7b2      	b.n	80015b6 <HAL_I2C_Init+0x92>
 8001650:	2319      	movs	r3, #25
 8001652:	436b      	muls	r3, r5
 8001654:	fbb0 f0f3 	udiv	r0, r0, r3
 8001658:	1c43      	adds	r3, r0, #1
 800165a:	f3c3 030b 	ubfx	r3, r3, #0, #12
 800165e:	b113      	cbz	r3, 8001666 <HAL_I2C_Init+0x142>
 8001660:	f443 4340 	orr.w	r3, r3, #49152	; 0xc000
 8001664:	e7a7      	b.n	80015b6 <HAL_I2C_Init+0x92>
 8001666:	2301      	movs	r3, #1
 8001668:	e7a5      	b.n	80015b6 <HAL_I2C_Init+0x92>
 800166a:	bf00      	nop
 800166c:	000186a0 	.word	0x000186a0
 8001670:	001e847f 	.word	0x001e847f
 8001674:	000f4240 	.word	0x000f4240
 8001678:	003d08ff 	.word	0x003d08ff

0800167c <HAL_I2C_Master_Transmit>:
 800167c:	e92d 41ff 	stmdb	sp!, {r0, r1, r2, r3, r4, r5, r6, r7, r8, lr}
 8001680:	4604      	mov	r4, r0
 8001682:	461f      	mov	r7, r3
 8001684:	460d      	mov	r5, r1
 8001686:	4690      	mov	r8, r2
 8001688:	f7ff fb62 	bl	8000d50 <HAL_GetTick>
 800168c:	f894 303d 	ldrb.w	r3, [r4, #61]	; 0x3d
 8001690:	2b20      	cmp	r3, #32
 8001692:	4606      	mov	r6, r0
 8001694:	d004      	beq.n	80016a0 <HAL_I2C_Master_Transmit+0x24>
 8001696:	2502      	movs	r5, #2
 8001698:	4628      	mov	r0, r5
 800169a:	b004      	add	sp, #16
 800169c:	e8bd 81f0 	ldmia.w	sp!, {r4, r5, r6, r7, r8, pc}
 80016a0:	9000      	str	r0, [sp, #0]
 80016a2:	2319      	movs	r3, #25
 80016a4:	2201      	movs	r2, #1
 80016a6:	495b      	ldr	r1, [pc, #364]	; (8001814 <HAL_I2C_Master_Transmit+0x198>)
 80016a8:	4620      	mov	r0, r4
 80016aa:	f7ff fee2 	bl	8001472 <I2C_WaitOnFlagUntilTimeout>
 80016ae:	2800      	cmp	r0, #0
 80016b0:	d1f1      	bne.n	8001696 <HAL_I2C_Master_Transmit+0x1a>
 80016b2:	f894 303c 	ldrb.w	r3, [r4, #60]	; 0x3c
 80016b6:	2b01      	cmp	r3, #1
 80016b8:	d0ed      	beq.n	8001696 <HAL_I2C_Master_Transmit+0x1a>
 80016ba:	2301      	movs	r3, #1
 80016bc:	f884 303c 	strb.w	r3, [r4, #60]	; 0x3c
 80016c0:	6823      	ldr	r3, [r4, #0]
 80016c2:	681a      	ldr	r2, [r3, #0]
 80016c4:	07d2      	lsls	r2, r2, #31
 80016c6:	bf5e      	ittt	pl
 80016c8:	681a      	ldrpl	r2, [r3, #0]
 80016ca:	f042 0201 	orrpl.w	r2, r2, #1
 80016ce:	601a      	strpl	r2, [r3, #0]
 80016d0:	681a      	ldr	r2, [r3, #0]
 80016d2:	f422 6200 	bic.w	r2, r2, #2048	; 0x800
 80016d6:	601a      	str	r2, [r3, #0]
 80016d8:	2221      	movs	r2, #33	; 0x21
 80016da:	f884 203d 	strb.w	r2, [r4, #61]	; 0x3d
 80016de:	2210      	movs	r2, #16
 80016e0:	f884 203e 	strb.w	r2, [r4, #62]	; 0x3e
 80016e4:	2200      	movs	r2, #0
 80016e6:	6422      	str	r2, [r4, #64]	; 0x40
 80016e8:	8567      	strh	r7, [r4, #42]	; 0x2a
 80016ea:	8d62      	ldrh	r2, [r4, #42]	; 0x2a
 80016ec:	8522      	strh	r2, [r4, #40]	; 0x28
 80016ee:	4a4a      	ldr	r2, [pc, #296]	; (8001818 <HAL_I2C_Master_Transmit+0x19c>)
 80016f0:	62e2      	str	r2, [r4, #44]	; 0x2c
 80016f2:	6ae2      	ldr	r2, [r4, #44]	; 0x2c
 80016f4:	f8c4 8024 	str.w	r8, [r4, #36]	; 0x24
 80016f8:	2a08      	cmp	r2, #8
 80016fa:	d004      	beq.n	8001706 <HAL_I2C_Master_Transmit+0x8a>
 80016fc:	2a01      	cmp	r2, #1
 80016fe:	d002      	beq.n	8001706 <HAL_I2C_Master_Transmit+0x8a>
 8001700:	f512 3f80 	cmn.w	r2, #65536	; 0x10000
 8001704:	d104      	bne.n	8001710 <HAL_I2C_Master_Transmit+0x94>
 8001706:	681a      	ldr	r2, [r3, #0]
 8001708:	f442 7280 	orr.w	r2, r2, #256	; 0x100
 800170c:	601a      	str	r2, [r3, #0]
 800170e:	e002      	b.n	8001716 <HAL_I2C_Master_Transmit+0x9a>
 8001710:	6b22      	ldr	r2, [r4, #48]	; 0x30
 8001712:	2a12      	cmp	r2, #18
 8001714:	d0f7      	beq.n	8001706 <HAL_I2C_Master_Transmit+0x8a>
 8001716:	2200      	movs	r2, #0
 8001718:	9600      	str	r6, [sp, #0]
 800171a:	9b0a      	ldr	r3, [sp, #40]	; 0x28
 800171c:	f04f 1101 	mov.w	r1, #65537	; 0x10001
 8001720:	4620      	mov	r0, r4
 8001722:	f7ff fea6 	bl	8001472 <I2C_WaitOnFlagUntilTimeout>
 8001726:	6822      	ldr	r2, [r4, #0]
 8001728:	b138      	cbz	r0, 800173a <HAL_I2C_Master_Transmit+0xbe>
 800172a:	6813      	ldr	r3, [r2, #0]
 800172c:	05db      	lsls	r3, r3, #23
 800172e:	bf44      	itt	mi
 8001730:	f44f 7300 	movmi.w	r3, #512	; 0x200
 8001734:	6423      	strmi	r3, [r4, #64]	; 0x40
 8001736:	2501      	movs	r5, #1
 8001738:	e7ae      	b.n	8001698 <HAL_I2C_Master_Transmit+0x1c>
 800173a:	6923      	ldr	r3, [r4, #16]
 800173c:	f5b3 4f80 	cmp.w	r3, #16384	; 0x4000
 8001740:	d113      	bne.n	800176a <HAL_I2C_Master_Transmit+0xee>
 8001742:	f005 05fe 	and.w	r5, r5, #254	; 0xfe
 8001746:	6115      	str	r5, [r2, #16]
 8001748:	4633      	mov	r3, r6
 800174a:	9a0a      	ldr	r2, [sp, #40]	; 0x28
 800174c:	4933      	ldr	r1, [pc, #204]	; (800181c <HAL_I2C_Master_Transmit+0x1a0>)
 800174e:	4620      	mov	r0, r4
 8001750:	f7ff fdf5 	bl	800133e <I2C_WaitOnMasterAddressFlagUntilTimeout>
 8001754:	4605      	mov	r5, r0
 8001756:	2800      	cmp	r0, #0
 8001758:	d1ed      	bne.n	8001736 <HAL_I2C_Master_Transmit+0xba>
 800175a:	6823      	ldr	r3, [r4, #0]
 800175c:	9003      	str	r0, [sp, #12]
 800175e:	695a      	ldr	r2, [r3, #20]
 8001760:	9203      	str	r2, [sp, #12]
 8001762:	699b      	ldr	r3, [r3, #24]
 8001764:	9303      	str	r3, [sp, #12]
 8001766:	9b03      	ldr	r3, [sp, #12]
 8001768:	e044      	b.n	80017f4 <HAL_I2C_Master_Transmit+0x178>
 800176a:	11eb      	asrs	r3, r5, #7
 800176c:	f003 0306 	and.w	r3, r3, #6
 8001770:	f043 03f0 	orr.w	r3, r3, #240	; 0xf0
 8001774:	6113      	str	r3, [r2, #16]
 8001776:	492a      	ldr	r1, [pc, #168]	; (8001820 <HAL_I2C_Master_Transmit+0x1a4>)
 8001778:	9a0a      	ldr	r2, [sp, #40]	; 0x28
 800177a:	4633      	mov	r3, r6
 800177c:	4620      	mov	r0, r4
 800177e:	f7ff fdde 	bl	800133e <I2C_WaitOnMasterAddressFlagUntilTimeout>
 8001782:	2800      	cmp	r0, #0
 8001784:	d1d7      	bne.n	8001736 <HAL_I2C_Master_Transmit+0xba>
 8001786:	6823      	ldr	r3, [r4, #0]
 8001788:	b2ed      	uxtb	r5, r5
 800178a:	611d      	str	r5, [r3, #16]
 800178c:	e7dc      	b.n	8001748 <HAL_I2C_Master_Transmit+0xcc>
 800178e:	4632      	mov	r2, r6
 8001790:	990a      	ldr	r1, [sp, #40]	; 0x28
 8001792:	4620      	mov	r0, r4
 8001794:	f7ff fe9f 	bl	80014d6 <I2C_WaitOnTXEFlagUntilTimeout>
 8001798:	b140      	cbz	r0, 80017ac <HAL_I2C_Master_Transmit+0x130>
 800179a:	6c23      	ldr	r3, [r4, #64]	; 0x40
 800179c:	2b04      	cmp	r3, #4
 800179e:	bf01      	itttt	eq
 80017a0:	6822      	ldreq	r2, [r4, #0]
 80017a2:	6813      	ldreq	r3, [r2, #0]
 80017a4:	f443 7300 	orreq.w	r3, r3, #512	; 0x200
 80017a8:	6013      	streq	r3, [r2, #0]
 80017aa:	e7c4      	b.n	8001736 <HAL_I2C_Master_Transmit+0xba>
 80017ac:	6a63      	ldr	r3, [r4, #36]	; 0x24
 80017ae:	6820      	ldr	r0, [r4, #0]
 80017b0:	461a      	mov	r2, r3
 80017b2:	f812 1b01 	ldrb.w	r1, [r2], #1
 80017b6:	6101      	str	r1, [r0, #16]
 80017b8:	6262      	str	r2, [r4, #36]	; 0x24
 80017ba:	8d62      	ldrh	r2, [r4, #42]	; 0x2a
 80017bc:	3a01      	subs	r2, #1
 80017be:	b292      	uxth	r2, r2
 80017c0:	8562      	strh	r2, [r4, #42]	; 0x2a
 80017c2:	8d22      	ldrh	r2, [r4, #40]	; 0x28
 80017c4:	6947      	ldr	r7, [r0, #20]
 80017c6:	1e51      	subs	r1, r2, #1
 80017c8:	b289      	uxth	r1, r1
 80017ca:	077f      	lsls	r7, r7, #29
 80017cc:	8521      	strh	r1, [r4, #40]	; 0x28
 80017ce:	d50a      	bpl.n	80017e6 <HAL_I2C_Master_Transmit+0x16a>
 80017d0:	b149      	cbz	r1, 80017e6 <HAL_I2C_Master_Transmit+0x16a>
 80017d2:	7859      	ldrb	r1, [r3, #1]
 80017d4:	6101      	str	r1, [r0, #16]
 80017d6:	3302      	adds	r3, #2
 80017d8:	6263      	str	r3, [r4, #36]	; 0x24
 80017da:	8d63      	ldrh	r3, [r4, #42]	; 0x2a
 80017dc:	3b01      	subs	r3, #1
 80017de:	b29b      	uxth	r3, r3
 80017e0:	3a02      	subs	r2, #2
 80017e2:	8563      	strh	r3, [r4, #42]	; 0x2a
 80017e4:	8522      	strh	r2, [r4, #40]	; 0x28
 80017e6:	4632      	mov	r2, r6
 80017e8:	990a      	ldr	r1, [sp, #40]	; 0x28
 80017ea:	4620      	mov	r0, r4
 80017ec:	f7ff fdec 	bl	80013c8 <I2C_WaitOnBTFFlagUntilTimeout>
 80017f0:	2800      	cmp	r0, #0
 80017f2:	d1d2      	bne.n	800179a <HAL_I2C_Master_Transmit+0x11e>
 80017f4:	8d23      	ldrh	r3, [r4, #40]	; 0x28
 80017f6:	2b00      	cmp	r3, #0
 80017f8:	d1c9      	bne.n	800178e <HAL_I2C_Master_Transmit+0x112>
 80017fa:	6821      	ldr	r1, [r4, #0]
 80017fc:	680a      	ldr	r2, [r1, #0]
 80017fe:	f442 7200 	orr.w	r2, r2, #512	; 0x200
 8001802:	600a      	str	r2, [r1, #0]
 8001804:	2220      	movs	r2, #32
 8001806:	f884 203d 	strb.w	r2, [r4, #61]	; 0x3d
 800180a:	f884 303c 	strb.w	r3, [r4, #60]	; 0x3c
 800180e:	f884 303e 	strb.w	r3, [r4, #62]	; 0x3e
 8001812:	e741      	b.n	8001698 <HAL_I2C_Master_Transmit+0x1c>
 8001814:	00100002 	.word	0x00100002
 8001818:	ffff0000 	.word	0xffff0000
 800181c:	00010002 	.word	0x00010002
 8001820:	00010008 	.word	0x00010008

08001824 <HAL_I2C_Master_Receive>:
 8001824:	e92d 43f0 	stmdb	sp!, {r4, r5, r6, r7, r8, r9, lr}
 8001828:	4604      	mov	r4, r0
 800182a:	b089      	sub	sp, #36	; 0x24
 800182c:	4698      	mov	r8, r3
 800182e:	460e      	mov	r6, r1
 8001830:	4691      	mov	r9, r2
 8001832:	9f10      	ldr	r7, [sp, #64]	; 0x40
 8001834:	f7ff fa8c 	bl	8000d50 <HAL_GetTick>
 8001838:	f894 303d 	ldrb.w	r3, [r4, #61]	; 0x3d
 800183c:	2b20      	cmp	r3, #32
 800183e:	4605      	mov	r5, r0
 8001840:	d004      	beq.n	800184c <HAL_I2C_Master_Receive+0x28>
 8001842:	2602      	movs	r6, #2
 8001844:	4630      	mov	r0, r6
 8001846:	b009      	add	sp, #36	; 0x24
 8001848:	e8bd 83f0 	ldmia.w	sp!, {r4, r5, r6, r7, r8, r9, pc}
 800184c:	9000      	str	r0, [sp, #0]
 800184e:	2319      	movs	r3, #25
 8001850:	2201      	movs	r2, #1
 8001852:	499b      	ldr	r1, [pc, #620]	; (8001ac0 <HAL_I2C_Master_Receive+0x29c>)
 8001854:	4620      	mov	r0, r4
 8001856:	f7ff fe0c 	bl	8001472 <I2C_WaitOnFlagUntilTimeout>
 800185a:	2800      	cmp	r0, #0
 800185c:	d1f1      	bne.n	8001842 <HAL_I2C_Master_Receive+0x1e>
 800185e:	f894 303c 	ldrb.w	r3, [r4, #60]	; 0x3c
 8001862:	2b01      	cmp	r3, #1
 8001864:	d0ed      	beq.n	8001842 <HAL_I2C_Master_Receive+0x1e>
 8001866:	2301      	movs	r3, #1
 8001868:	f884 303c 	strb.w	r3, [r4, #60]	; 0x3c
 800186c:	6823      	ldr	r3, [r4, #0]
 800186e:	681a      	ldr	r2, [r3, #0]
 8001870:	07d2      	lsls	r2, r2, #31
 8001872:	bf5e      	ittt	pl
 8001874:	681a      	ldrpl	r2, [r3, #0]
 8001876:	f042 0201 	orrpl.w	r2, r2, #1
 800187a:	601a      	strpl	r2, [r3, #0]
 800187c:	681a      	ldr	r2, [r3, #0]
 800187e:	f422 6200 	bic.w	r2, r2, #2048	; 0x800
 8001882:	601a      	str	r2, [r3, #0]
 8001884:	2222      	movs	r2, #34	; 0x22
 8001886:	f884 203d 	strb.w	r2, [r4, #61]	; 0x3d
 800188a:	2210      	movs	r2, #16
 800188c:	f884 203e 	strb.w	r2, [r4, #62]	; 0x3e
 8001890:	2200      	movs	r2, #0
 8001892:	6422      	str	r2, [r4, #64]	; 0x40
 8001894:	f8a4 802a 	strh.w	r8, [r4, #42]	; 0x2a
 8001898:	8d62      	ldrh	r2, [r4, #42]	; 0x2a
 800189a:	8522      	strh	r2, [r4, #40]	; 0x28
 800189c:	4a89      	ldr	r2, [pc, #548]	; (8001ac4 <HAL_I2C_Master_Receive+0x2a0>)
 800189e:	62e2      	str	r2, [r4, #44]	; 0x2c
 80018a0:	6ae2      	ldr	r2, [r4, #44]	; 0x2c
 80018a2:	6819      	ldr	r1, [r3, #0]
 80018a4:	f8c4 9024 	str.w	r9, [r4, #36]	; 0x24
 80018a8:	f441 6180 	orr.w	r1, r1, #1024	; 0x400
 80018ac:	2a08      	cmp	r2, #8
 80018ae:	6019      	str	r1, [r3, #0]
 80018b0:	d004      	beq.n	80018bc <HAL_I2C_Master_Receive+0x98>
 80018b2:	2a01      	cmp	r2, #1
 80018b4:	d002      	beq.n	80018bc <HAL_I2C_Master_Receive+0x98>
 80018b6:	f512 3f80 	cmn.w	r2, #65536	; 0x10000
 80018ba:	d104      	bne.n	80018c6 <HAL_I2C_Master_Receive+0xa2>
 80018bc:	681a      	ldr	r2, [r3, #0]
 80018be:	f442 7280 	orr.w	r2, r2, #256	; 0x100
 80018c2:	601a      	str	r2, [r3, #0]
 80018c4:	e002      	b.n	80018cc <HAL_I2C_Master_Receive+0xa8>
 80018c6:	6b22      	ldr	r2, [r4, #48]	; 0x30
 80018c8:	2a11      	cmp	r2, #17
 80018ca:	d0f7      	beq.n	80018bc <HAL_I2C_Master_Receive+0x98>
 80018cc:	463b      	mov	r3, r7
 80018ce:	9500      	str	r5, [sp, #0]
 80018d0:	2200      	movs	r2, #0
 80018d2:	f04f 1101 	mov.w	r1, #65537	; 0x10001
 80018d6:	4620      	mov	r0, r4
 80018d8:	f7ff fdcb 	bl	8001472 <I2C_WaitOnFlagUntilTimeout>
 80018dc:	6823      	ldr	r3, [r4, #0]
 80018de:	b138      	cbz	r0, 80018f0 <HAL_I2C_Master_Receive+0xcc>
 80018e0:	681b      	ldr	r3, [r3, #0]
 80018e2:	05d8      	lsls	r0, r3, #23
 80018e4:	bf44      	itt	mi
 80018e6:	f44f 7300 	movmi.w	r3, #512	; 0x200
 80018ea:	6423      	strmi	r3, [r4, #64]	; 0x40
 80018ec:	2601      	movs	r6, #1
 80018ee:	e7a9      	b.n	8001844 <HAL_I2C_Master_Receive+0x20>
 80018f0:	6922      	ldr	r2, [r4, #16]
 80018f2:	f5b2 4f80 	cmp.w	r2, #16384	; 0x4000
 80018f6:	d140      	bne.n	800197a <HAL_I2C_Master_Receive+0x156>
 80018f8:	f046 0601 	orr.w	r6, r6, #1
 80018fc:	b2f6      	uxtb	r6, r6
 80018fe:	611e      	str	r6, [r3, #16]
 8001900:	462b      	mov	r3, r5
 8001902:	463a      	mov	r2, r7
 8001904:	4970      	ldr	r1, [pc, #448]	; (8001ac8 <HAL_I2C_Master_Receive+0x2a4>)
 8001906:	4620      	mov	r0, r4
 8001908:	f7ff fd19 	bl	800133e <I2C_WaitOnMasterAddressFlagUntilTimeout>
 800190c:	4606      	mov	r6, r0
 800190e:	2800      	cmp	r0, #0
 8001910:	d1ec      	bne.n	80018ec <HAL_I2C_Master_Receive+0xc8>
 8001912:	8d22      	ldrh	r2, [r4, #40]	; 0x28
 8001914:	6823      	ldr	r3, [r4, #0]
 8001916:	2a00      	cmp	r2, #0
 8001918:	d064      	beq.n	80019e4 <HAL_I2C_Master_Receive+0x1c0>
 800191a:	2a01      	cmp	r2, #1
 800191c:	d175      	bne.n	8001a0a <HAL_I2C_Master_Receive+0x1e6>
 800191e:	681a      	ldr	r2, [r3, #0]
 8001920:	f422 6280 	bic.w	r2, r2, #1024	; 0x400
 8001924:	601a      	str	r2, [r3, #0]
 8001926:	9604      	str	r6, [sp, #16]
 8001928:	695a      	ldr	r2, [r3, #20]
 800192a:	9204      	str	r2, [sp, #16]
 800192c:	699a      	ldr	r2, [r3, #24]
 800192e:	9204      	str	r2, [sp, #16]
 8001930:	9a04      	ldr	r2, [sp, #16]
 8001932:	681a      	ldr	r2, [r3, #0]
 8001934:	f442 7200 	orr.w	r2, r2, #512	; 0x200
 8001938:	601a      	str	r2, [r3, #0]
 800193a:	f8df 8194 	ldr.w	r8, [pc, #404]	; 8001ad0 <HAL_I2C_Master_Receive+0x2ac>
 800193e:	8d23      	ldrh	r3, [r4, #40]	; 0x28
 8001940:	2b00      	cmp	r3, #0
 8001942:	d059      	beq.n	80019f8 <HAL_I2C_Master_Receive+0x1d4>
 8001944:	2b03      	cmp	r3, #3
 8001946:	f200 80c5 	bhi.w	8001ad4 <HAL_I2C_Master_Receive+0x2b0>
 800194a:	2b01      	cmp	r3, #1
 800194c:	d178      	bne.n	8001a40 <HAL_I2C_Master_Receive+0x21c>
 800194e:	462a      	mov	r2, r5
 8001950:	4639      	mov	r1, r7
 8001952:	4620      	mov	r0, r4
 8001954:	f7ff fd5e 	bl	8001414 <I2C_WaitOnRXNEFlagUntilTimeout>
 8001958:	2800      	cmp	r0, #0
 800195a:	d1c7      	bne.n	80018ec <HAL_I2C_Master_Receive+0xc8>
 800195c:	6822      	ldr	r2, [r4, #0]
 800195e:	6a63      	ldr	r3, [r4, #36]	; 0x24
 8001960:	6912      	ldr	r2, [r2, #16]
 8001962:	701a      	strb	r2, [r3, #0]
 8001964:	6a63      	ldr	r3, [r4, #36]	; 0x24
 8001966:	3301      	adds	r3, #1
 8001968:	6263      	str	r3, [r4, #36]	; 0x24
 800196a:	8d23      	ldrh	r3, [r4, #40]	; 0x28
 800196c:	3b01      	subs	r3, #1
 800196e:	8523      	strh	r3, [r4, #40]	; 0x28
 8001970:	8d63      	ldrh	r3, [r4, #42]	; 0x2a
 8001972:	3b01      	subs	r3, #1
 8001974:	b29b      	uxth	r3, r3
 8001976:	8563      	strh	r3, [r4, #42]	; 0x2a
 8001978:	e7e1      	b.n	800193e <HAL_I2C_Master_Receive+0x11a>
 800197a:	ea4f 18e6 	mov.w	r8, r6, asr #7
 800197e:	f008 0806 	and.w	r8, r8, #6
 8001982:	f048 02f0 	orr.w	r2, r8, #240	; 0xf0
 8001986:	611a      	str	r2, [r3, #16]
 8001988:	4950      	ldr	r1, [pc, #320]	; (8001acc <HAL_I2C_Master_Receive+0x2a8>)
 800198a:	462b      	mov	r3, r5
 800198c:	463a      	mov	r2, r7
 800198e:	4620      	mov	r0, r4
 8001990:	f7ff fcd5 	bl	800133e <I2C_WaitOnMasterAddressFlagUntilTimeout>
 8001994:	2800      	cmp	r0, #0
 8001996:	d1a9      	bne.n	80018ec <HAL_I2C_Master_Receive+0xc8>
 8001998:	6823      	ldr	r3, [r4, #0]
 800199a:	494b      	ldr	r1, [pc, #300]	; (8001ac8 <HAL_I2C_Master_Receive+0x2a4>)
 800199c:	b2f6      	uxtb	r6, r6
 800199e:	611e      	str	r6, [r3, #16]
 80019a0:	463a      	mov	r2, r7
 80019a2:	462b      	mov	r3, r5
 80019a4:	4620      	mov	r0, r4
 80019a6:	f7ff fcca 	bl	800133e <I2C_WaitOnMasterAddressFlagUntilTimeout>
 80019aa:	4602      	mov	r2, r0
 80019ac:	2800      	cmp	r0, #0
 80019ae:	d19d      	bne.n	80018ec <HAL_I2C_Master_Receive+0xc8>
 80019b0:	6823      	ldr	r3, [r4, #0]
 80019b2:	9007      	str	r0, [sp, #28]
 80019b4:	6959      	ldr	r1, [r3, #20]
 80019b6:	9107      	str	r1, [sp, #28]
 80019b8:	6999      	ldr	r1, [r3, #24]
 80019ba:	9107      	str	r1, [sp, #28]
 80019bc:	9907      	ldr	r1, [sp, #28]
 80019be:	6819      	ldr	r1, [r3, #0]
 80019c0:	f441 7180 	orr.w	r1, r1, #256	; 0x100
 80019c4:	6019      	str	r1, [r3, #0]
 80019c6:	4620      	mov	r0, r4
 80019c8:	9500      	str	r5, [sp, #0]
 80019ca:	463b      	mov	r3, r7
 80019cc:	f04f 1101 	mov.w	r1, #65537	; 0x10001
 80019d0:	f7ff fd4f 	bl	8001472 <I2C_WaitOnFlagUntilTimeout>
 80019d4:	6822      	ldr	r2, [r4, #0]
 80019d6:	b108      	cbz	r0, 80019dc <HAL_I2C_Master_Receive+0x1b8>
 80019d8:	6813      	ldr	r3, [r2, #0]
 80019da:	e782      	b.n	80018e2 <HAL_I2C_Master_Receive+0xbe>
 80019dc:	f048 03f1 	orr.w	r3, r8, #241	; 0xf1
 80019e0:	6113      	str	r3, [r2, #16]
 80019e2:	e78d      	b.n	8001900 <HAL_I2C_Master_Receive+0xdc>
 80019e4:	9603      	str	r6, [sp, #12]
 80019e6:	695a      	ldr	r2, [r3, #20]
 80019e8:	9203      	str	r2, [sp, #12]
 80019ea:	699a      	ldr	r2, [r3, #24]
 80019ec:	9203      	str	r2, [sp, #12]
 80019ee:	9a03      	ldr	r2, [sp, #12]
 80019f0:	681a      	ldr	r2, [r3, #0]
 80019f2:	f442 7200 	orr.w	r2, r2, #512	; 0x200
 80019f6:	601a      	str	r2, [r3, #0]
 80019f8:	2320      	movs	r3, #32
 80019fa:	f884 303d 	strb.w	r3, [r4, #61]	; 0x3d
 80019fe:	2300      	movs	r3, #0
 8001a00:	f884 303e 	strb.w	r3, [r4, #62]	; 0x3e
 8001a04:	f884 303c 	strb.w	r3, [r4, #60]	; 0x3c
 8001a08:	e71c      	b.n	8001844 <HAL_I2C_Master_Receive+0x20>
 8001a0a:	2a02      	cmp	r2, #2
 8001a0c:	681a      	ldr	r2, [r3, #0]
 8001a0e:	d10d      	bne.n	8001a2c <HAL_I2C_Master_Receive+0x208>
 8001a10:	f422 6280 	bic.w	r2, r2, #1024	; 0x400
 8001a14:	601a      	str	r2, [r3, #0]
 8001a16:	681a      	ldr	r2, [r3, #0]
 8001a18:	f442 6200 	orr.w	r2, r2, #2048	; 0x800
 8001a1c:	601a      	str	r2, [r3, #0]
 8001a1e:	9605      	str	r6, [sp, #20]
 8001a20:	695a      	ldr	r2, [r3, #20]
 8001a22:	9205      	str	r2, [sp, #20]
 8001a24:	699b      	ldr	r3, [r3, #24]
 8001a26:	9305      	str	r3, [sp, #20]
 8001a28:	9b05      	ldr	r3, [sp, #20]
 8001a2a:	e786      	b.n	800193a <HAL_I2C_Master_Receive+0x116>
 8001a2c:	f442 6280 	orr.w	r2, r2, #1024	; 0x400
 8001a30:	601a      	str	r2, [r3, #0]
 8001a32:	9606      	str	r6, [sp, #24]
 8001a34:	695a      	ldr	r2, [r3, #20]
 8001a36:	9206      	str	r2, [sp, #24]
 8001a38:	699b      	ldr	r3, [r3, #24]
 8001a3a:	9306      	str	r3, [sp, #24]
 8001a3c:	9b06      	ldr	r3, [sp, #24]
 8001a3e:	e77c      	b.n	800193a <HAL_I2C_Master_Receive+0x116>
 8001a40:	2b02      	cmp	r3, #2
 8001a42:	9500      	str	r5, [sp, #0]
 8001a44:	463b      	mov	r3, r7
 8001a46:	f04f 0200 	mov.w	r2, #0
 8001a4a:	4641      	mov	r1, r8
 8001a4c:	4620      	mov	r0, r4
 8001a4e:	d11a      	bne.n	8001a86 <HAL_I2C_Master_Receive+0x262>
 8001a50:	f7ff fd0f 	bl	8001472 <I2C_WaitOnFlagUntilTimeout>
 8001a54:	2800      	cmp	r0, #0
 8001a56:	f47f af49 	bne.w	80018ec <HAL_I2C_Master_Receive+0xc8>
 8001a5a:	6823      	ldr	r3, [r4, #0]
 8001a5c:	681a      	ldr	r2, [r3, #0]
 8001a5e:	f442 7200 	orr.w	r2, r2, #512	; 0x200
 8001a62:	601a      	str	r2, [r3, #0]
 8001a64:	6a62      	ldr	r2, [r4, #36]	; 0x24
 8001a66:	691b      	ldr	r3, [r3, #16]
 8001a68:	7013      	strb	r3, [r2, #0]
 8001a6a:	6a62      	ldr	r2, [r4, #36]	; 0x24
 8001a6c:	1c53      	adds	r3, r2, #1
 8001a6e:	6263      	str	r3, [r4, #36]	; 0x24
 8001a70:	8d23      	ldrh	r3, [r4, #40]	; 0x28
 8001a72:	3b01      	subs	r3, #1
 8001a74:	8523      	strh	r3, [r4, #40]	; 0x28
 8001a76:	8d63      	ldrh	r3, [r4, #42]	; 0x2a
 8001a78:	3b01      	subs	r3, #1
 8001a7a:	b29b      	uxth	r3, r3
 8001a7c:	8563      	strh	r3, [r4, #42]	; 0x2a
 8001a7e:	6823      	ldr	r3, [r4, #0]
 8001a80:	691b      	ldr	r3, [r3, #16]
 8001a82:	7053      	strb	r3, [r2, #1]
 8001a84:	e76e      	b.n	8001964 <HAL_I2C_Master_Receive+0x140>
 8001a86:	f7ff fcf4 	bl	8001472 <I2C_WaitOnFlagUntilTimeout>
 8001a8a:	4602      	mov	r2, r0
 8001a8c:	2800      	cmp	r0, #0
 8001a8e:	f47f af2d 	bne.w	80018ec <HAL_I2C_Master_Receive+0xc8>
 8001a92:	6823      	ldr	r3, [r4, #0]
 8001a94:	6819      	ldr	r1, [r3, #0]
 8001a96:	f421 6180 	bic.w	r1, r1, #1024	; 0x400
 8001a9a:	6019      	str	r1, [r3, #0]
 8001a9c:	6a61      	ldr	r1, [r4, #36]	; 0x24
 8001a9e:	691b      	ldr	r3, [r3, #16]
 8001aa0:	700b      	strb	r3, [r1, #0]
 8001aa2:	6a63      	ldr	r3, [r4, #36]	; 0x24
 8001aa4:	9500      	str	r5, [sp, #0]
 8001aa6:	3301      	adds	r3, #1
 8001aa8:	6263      	str	r3, [r4, #36]	; 0x24
 8001aaa:	8d23      	ldrh	r3, [r4, #40]	; 0x28
 8001aac:	3b01      	subs	r3, #1
 8001aae:	8523      	strh	r3, [r4, #40]	; 0x28
 8001ab0:	8d63      	ldrh	r3, [r4, #42]	; 0x2a
 8001ab2:	3b01      	subs	r3, #1
 8001ab4:	b29b      	uxth	r3, r3
 8001ab6:	8563      	strh	r3, [r4, #42]	; 0x2a
 8001ab8:	4641      	mov	r1, r8
 8001aba:	463b      	mov	r3, r7
 8001abc:	4620      	mov	r0, r4
 8001abe:	e7c7      	b.n	8001a50 <HAL_I2C_Master_Receive+0x22c>
 8001ac0:	00100002 	.word	0x00100002
 8001ac4:	ffff0000 	.word	0xffff0000
 8001ac8:	00010002 	.word	0x00010002
 8001acc:	00010008 	.word	0x00010008
 8001ad0:	00010004 	.word	0x00010004
 8001ad4:	462a      	mov	r2, r5
 8001ad6:	4639      	mov	r1, r7
 8001ad8:	4620      	mov	r0, r4
 8001ada:	f7ff fc9b 	bl	8001414 <I2C_WaitOnRXNEFlagUntilTimeout>
 8001ade:	2800      	cmp	r0, #0
 8001ae0:	f47f af04 	bne.w	80018ec <HAL_I2C_Master_Receive+0xc8>
 8001ae4:	6822      	ldr	r2, [r4, #0]
 8001ae6:	6a63      	ldr	r3, [r4, #36]	; 0x24
 8001ae8:	6912      	ldr	r2, [r2, #16]
 8001aea:	701a      	strb	r2, [r3, #0]
 8001aec:	6a62      	ldr	r2, [r4, #36]	; 0x24
 8001aee:	1c53      	adds	r3, r2, #1
 8001af0:	6263      	str	r3, [r4, #36]	; 0x24
 8001af2:	8d23      	ldrh	r3, [r4, #40]	; 0x28
 8001af4:	3b01      	subs	r3, #1
 8001af6:	8523      	strh	r3, [r4, #40]	; 0x28
 8001af8:	8d63      	ldrh	r3, [r4, #42]	; 0x2a
 8001afa:	3b01      	subs	r3, #1
 8001afc:	b29b      	uxth	r3, r3
 8001afe:	8563      	strh	r3, [r4, #42]	; 0x2a
 8001b00:	6823      	ldr	r3, [r4, #0]
 8001b02:	6959      	ldr	r1, [r3, #20]
 8001b04:	0749      	lsls	r1, r1, #29
 8001b06:	f57f af1a 	bpl.w	800193e <HAL_I2C_Master_Receive+0x11a>
 8001b0a:	e7b9      	b.n	8001a80 <HAL_I2C_Master_Receive+0x25c>

08001b0c <HAL_I2C_GetState>:
 8001b0c:	f890 003d 	ldrb.w	r0, [r0, #61]	; 0x3d
 8001b10:	4770      	bx	lr
	...

08001b14 <HAL_I2S_Init>:
 8001b14:	b5f8      	push	{r3, r4, r5, r6, r7, lr}
 8001b16:	4604      	mov	r4, r0
 8001b18:	2800      	cmp	r0, #0
 8001b1a:	d041      	beq.n	8001ba0 <HAL_I2S_Init+0x8c>
 8001b1c:	f890 3041 	ldrb.w	r3, [r0, #65]	; 0x41
 8001b20:	f003 02ff 	and.w	r2, r3, #255	; 0xff
 8001b24:	b92b      	cbnz	r3, 8001b32 <HAL_I2S_Init+0x1e>
 8001b26:	4b42      	ldr	r3, [pc, #264]	; (8001c30 <HAL_I2S_Init+0x11c>)
 8001b28:	f880 2040 	strb.w	r2, [r0, #64]	; 0x40
 8001b2c:	6343      	str	r3, [r0, #52]	; 0x34
 8001b2e:	f001 fc25 	bl	800337c <HAL_I2S_MspInit>
 8001b32:	2102      	movs	r1, #2
 8001b34:	6822      	ldr	r2, [r4, #0]
 8001b36:	f884 1041 	strb.w	r1, [r4, #65]	; 0x41
 8001b3a:	69d3      	ldr	r3, [r2, #28]
 8001b3c:	f423 637b 	bic.w	r3, r3, #4016	; 0xfb0
 8001b40:	f023 030f 	bic.w	r3, r3, #15
 8001b44:	61d3      	str	r3, [r2, #28]
 8001b46:	6963      	ldr	r3, [r4, #20]
 8001b48:	6211      	str	r1, [r2, #32]
 8001b4a:	428b      	cmp	r3, r1
 8001b4c:	d031      	beq.n	8001bb2 <HAL_I2S_Init+0x9e>
 8001b4e:	68e3      	ldr	r3, [r4, #12]
 8001b50:	2b00      	cmp	r3, #0
 8001b52:	68a3      	ldr	r3, [r4, #8]
 8001b54:	bf0c      	ite	eq
 8001b56:	2510      	moveq	r5, #16
 8001b58:	2520      	movne	r5, #32
 8001b5a:	2001      	movs	r0, #1
 8001b5c:	2b20      	cmp	r3, #32
 8001b5e:	bf98      	it	ls
 8001b60:	006d      	lslls	r5, r5, #1
 8001b62:	f000 fe7f 	bl	8002864 <HAL_RCCEx_GetPeriphCLKFreq>
 8001b66:	6923      	ldr	r3, [r4, #16]
 8001b68:	6961      	ldr	r1, [r4, #20]
 8001b6a:	f5b3 7f00 	cmp.w	r3, #512	; 0x200
 8001b6e:	d11b      	bne.n	8001ba8 <HAL_I2S_Init+0x94>
 8001b70:	68e3      	ldr	r3, [r4, #12]
 8001b72:	220a      	movs	r2, #10
 8001b74:	b1b3      	cbz	r3, 8001ba4 <HAL_I2S_Init+0x90>
 8001b76:	00ab      	lsls	r3, r5, #2
 8001b78:	fbb0 f3f3 	udiv	r3, r0, r3
 8001b7c:	4353      	muls	r3, r2
 8001b7e:	220a      	movs	r2, #10
 8001b80:	fbb3 f3f1 	udiv	r3, r3, r1
 8001b84:	3305      	adds	r3, #5
 8001b86:	fbb3 f3f2 	udiv	r3, r3, r2
 8001b8a:	f003 0201 	and.w	r2, r3, #1
 8001b8e:	0212      	lsls	r2, r2, #8
 8001b90:	085b      	lsrs	r3, r3, #1
 8001b92:	1e99      	subs	r1, r3, #2
 8001b94:	29fd      	cmp	r1, #253	; 0xfd
 8001b96:	d90e      	bls.n	8001bb6 <HAL_I2S_Init+0xa2>
 8001b98:	6c63      	ldr	r3, [r4, #68]	; 0x44
 8001b9a:	f043 0310 	orr.w	r3, r3, #16
 8001b9e:	6463      	str	r3, [r4, #68]	; 0x44
 8001ba0:	2001      	movs	r0, #1
 8001ba2:	bdf8      	pop	{r3, r4, r5, r6, r7, pc}
 8001ba4:	00eb      	lsls	r3, r5, #3
 8001ba6:	e7e7      	b.n	8001b78 <HAL_I2S_Init+0x64>
 8001ba8:	230a      	movs	r3, #10
 8001baa:	fbb0 f0f5 	udiv	r0, r0, r5
 8001bae:	4343      	muls	r3, r0
 8001bb0:	e7e5      	b.n	8001b7e <HAL_I2S_Init+0x6a>
 8001bb2:	2200      	movs	r2, #0
 8001bb4:	e7ed      	b.n	8001b92 <HAL_I2S_Init+0x7e>
 8001bb6:	4313      	orrs	r3, r2
 8001bb8:	6922      	ldr	r2, [r4, #16]
 8001bba:	6821      	ldr	r1, [r4, #0]
 8001bbc:	6866      	ldr	r6, [r4, #4]
 8001bbe:	68e5      	ldr	r5, [r4, #12]
 8001bc0:	69a0      	ldr	r0, [r4, #24]
 8001bc2:	f8df e07c 	ldr.w	lr, [pc, #124]	; 8001c40 <HAL_I2S_Init+0x12c>
 8001bc6:	4313      	orrs	r3, r2
 8001bc8:	620b      	str	r3, [r1, #32]
 8001bca:	68a3      	ldr	r3, [r4, #8]
 8001bcc:	69cf      	ldr	r7, [r1, #28]
 8001bce:	ea46 0203 	orr.w	r2, r6, r3
 8001bd2:	f442 6200 	orr.w	r2, r2, #2048	; 0x800
 8001bd6:	432a      	orrs	r2, r5
 8001bd8:	4302      	orrs	r2, r0
 8001bda:	ea07 070e 	and.w	r7, r7, lr
 8001bde:	433a      	orrs	r2, r7
 8001be0:	61ca      	str	r2, [r1, #28]
 8001be2:	6a22      	ldr	r2, [r4, #32]
 8001be4:	2a01      	cmp	r2, #1
 8001be6:	d11d      	bne.n	8001c24 <HAL_I2S_Init+0x110>
 8001be8:	4a12      	ldr	r2, [pc, #72]	; (8001c34 <HAL_I2S_Init+0x120>)
 8001bea:	6362      	str	r2, [r4, #52]	; 0x34
 8001bec:	4f12      	ldr	r7, [pc, #72]	; (8001c38 <HAL_I2S_Init+0x124>)
 8001bee:	4a13      	ldr	r2, [pc, #76]	; (8001c3c <HAL_I2S_Init+0x128>)
 8001bf0:	42b9      	cmp	r1, r7
 8001bf2:	bf18      	it	ne
 8001bf4:	f04f 2240 	movne.w	r2, #1073758208	; 0x40004000
 8001bf8:	432b      	orrs	r3, r5
 8001bfa:	69d1      	ldr	r1, [r2, #28]
 8001bfc:	ea01 010e 	and.w	r1, r1, lr
 8001c00:	61d1      	str	r1, [r2, #28]
 8001c02:	2102      	movs	r1, #2
 8001c04:	6211      	str	r1, [r2, #32]
 8001c06:	69d7      	ldr	r7, [r2, #28]
 8001c08:	f443 6300 	orr.w	r3, r3, #2048	; 0x800
 8001c0c:	4303      	orrs	r3, r0
 8001c0e:	f436 7100 	bics.w	r1, r6, #512	; 0x200
 8001c12:	ea43 0307 	orr.w	r3, r3, r7
 8001c16:	bf0c      	ite	eq
 8001c18:	f44f 7180 	moveq.w	r1, #256	; 0x100
 8001c1c:	2100      	movne	r1, #0
 8001c1e:	b29b      	uxth	r3, r3
 8001c20:	430b      	orrs	r3, r1
 8001c22:	61d3      	str	r3, [r2, #28]
 8001c24:	2000      	movs	r0, #0
 8001c26:	2301      	movs	r3, #1
 8001c28:	6460      	str	r0, [r4, #68]	; 0x44
 8001c2a:	f884 3041 	strb.w	r3, [r4, #65]	; 0x41
 8001c2e:	bdf8      	pop	{r3, r4, r5, r6, r7, pc}
 8001c30:	08001c4b 	.word	0x08001c4b
 8001c34:	08001fd9 	.word	0x08001fd9
 8001c38:	40003800 	.word	0x40003800
 8001c3c:	40003400 	.word	0x40003400
 8001c40:	fffff040 	.word	0xfffff040

08001c44 <HAL_I2S_TxCpltCallback>:
 8001c44:	4770      	bx	lr

08001c46 <HAL_I2S_RxCpltCallback>:
 8001c46:	4770      	bx	lr

08001c48 <HAL_I2S_ErrorCallback>:
 8001c48:	4770      	bx	lr

08001c4a <I2S_IRQHandler>:
 8001c4a:	b51f      	push	{r0, r1, r2, r3, r4, lr}
 8001c4c:	6803      	ldr	r3, [r0, #0]
 8001c4e:	689a      	ldr	r2, [r3, #8]
 8001c50:	9201      	str	r2, [sp, #4]
 8001c52:	f890 2041 	ldrb.w	r2, [r0, #65]	; 0x41
 8001c56:	2a04      	cmp	r2, #4
 8001c58:	4604      	mov	r4, r0
 8001c5a:	d136      	bne.n	8001cca <I2S_IRQHandler+0x80>
 8001c5c:	9a01      	ldr	r2, [sp, #4]
 8001c5e:	07d1      	lsls	r1, r2, #31
 8001c60:	d517      	bpl.n	8001c92 <I2S_IRQHandler+0x48>
 8001c62:	685a      	ldr	r2, [r3, #4]
 8001c64:	0652      	lsls	r2, r2, #25
 8001c66:	d514      	bpl.n	8001c92 <I2S_IRQHandler+0x48>
 8001c68:	6ac2      	ldr	r2, [r0, #44]	; 0x2c
 8001c6a:	68d9      	ldr	r1, [r3, #12]
 8001c6c:	f822 1b02 	strh.w	r1, [r2], #2
 8001c70:	62c2      	str	r2, [r0, #44]	; 0x2c
 8001c72:	8e42      	ldrh	r2, [r0, #50]	; 0x32
 8001c74:	3a01      	subs	r2, #1
 8001c76:	b292      	uxth	r2, r2
 8001c78:	8642      	strh	r2, [r0, #50]	; 0x32
 8001c7a:	8e42      	ldrh	r2, [r0, #50]	; 0x32
 8001c7c:	b292      	uxth	r2, r2
 8001c7e:	b942      	cbnz	r2, 8001c92 <I2S_IRQHandler+0x48>
 8001c80:	685a      	ldr	r2, [r3, #4]
 8001c82:	f022 0260 	bic.w	r2, r2, #96	; 0x60
 8001c86:	605a      	str	r2, [r3, #4]
 8001c88:	2301      	movs	r3, #1
 8001c8a:	f880 3041 	strb.w	r3, [r0, #65]	; 0x41
 8001c8e:	f7ff ffda 	bl	8001c46 <HAL_I2S_RxCpltCallback>
 8001c92:	9b01      	ldr	r3, [sp, #4]
 8001c94:	0659      	lsls	r1, r3, #25
 8001c96:	d518      	bpl.n	8001cca <I2S_IRQHandler+0x80>
 8001c98:	6823      	ldr	r3, [r4, #0]
 8001c9a:	685a      	ldr	r2, [r3, #4]
 8001c9c:	0692      	lsls	r2, r2, #26
 8001c9e:	d514      	bpl.n	8001cca <I2S_IRQHandler+0x80>
 8001ca0:	685a      	ldr	r2, [r3, #4]
 8001ca2:	f022 0260 	bic.w	r2, r2, #96	; 0x60
 8001ca6:	605a      	str	r2, [r3, #4]
 8001ca8:	2200      	movs	r2, #0
 8001caa:	9202      	str	r2, [sp, #8]
 8001cac:	68da      	ldr	r2, [r3, #12]
 8001cae:	9202      	str	r2, [sp, #8]
 8001cb0:	689b      	ldr	r3, [r3, #8]
 8001cb2:	9302      	str	r3, [sp, #8]
 8001cb4:	9b02      	ldr	r3, [sp, #8]
 8001cb6:	2301      	movs	r3, #1
 8001cb8:	f884 3041 	strb.w	r3, [r4, #65]	; 0x41
 8001cbc:	6c63      	ldr	r3, [r4, #68]	; 0x44
 8001cbe:	f043 0302 	orr.w	r3, r3, #2
 8001cc2:	6463      	str	r3, [r4, #68]	; 0x44
 8001cc4:	4620      	mov	r0, r4
 8001cc6:	f7ff ffbf 	bl	8001c48 <HAL_I2S_ErrorCallback>
 8001cca:	f894 3041 	ldrb.w	r3, [r4, #65]	; 0x41
 8001cce:	2b03      	cmp	r3, #3
 8001cd0:	d136      	bne.n	8001d40 <I2S_IRQHandler+0xf6>
 8001cd2:	9b01      	ldr	r3, [sp, #4]
 8001cd4:	079b      	lsls	r3, r3, #30
 8001cd6:	d519      	bpl.n	8001d0c <I2S_IRQHandler+0xc2>
 8001cd8:	6822      	ldr	r2, [r4, #0]
 8001cda:	6853      	ldr	r3, [r2, #4]
 8001cdc:	0618      	lsls	r0, r3, #24
 8001cde:	d515      	bpl.n	8001d0c <I2S_IRQHandler+0xc2>
 8001ce0:	6a63      	ldr	r3, [r4, #36]	; 0x24
 8001ce2:	f833 1b02 	ldrh.w	r1, [r3], #2
 8001ce6:	60d1      	str	r1, [r2, #12]
 8001ce8:	6263      	str	r3, [r4, #36]	; 0x24
 8001cea:	8d63      	ldrh	r3, [r4, #42]	; 0x2a
 8001cec:	3b01      	subs	r3, #1
 8001cee:	b29b      	uxth	r3, r3
 8001cf0:	8563      	strh	r3, [r4, #42]	; 0x2a
 8001cf2:	8d63      	ldrh	r3, [r4, #42]	; 0x2a
 8001cf4:	b29b      	uxth	r3, r3
 8001cf6:	b94b      	cbnz	r3, 8001d0c <I2S_IRQHandler+0xc2>
 8001cf8:	6853      	ldr	r3, [r2, #4]
 8001cfa:	f023 03a0 	bic.w	r3, r3, #160	; 0xa0
 8001cfe:	6053      	str	r3, [r2, #4]
 8001d00:	2301      	movs	r3, #1
 8001d02:	f884 3041 	strb.w	r3, [r4, #65]	; 0x41
 8001d06:	4620      	mov	r0, r4
 8001d08:	f7ff ff9c 	bl	8001c44 <HAL_I2S_TxCpltCallback>
 8001d0c:	9b01      	ldr	r3, [sp, #4]
 8001d0e:	0719      	lsls	r1, r3, #28
 8001d10:	d516      	bpl.n	8001d40 <I2S_IRQHandler+0xf6>
 8001d12:	6823      	ldr	r3, [r4, #0]
 8001d14:	685a      	ldr	r2, [r3, #4]
 8001d16:	0692      	lsls	r2, r2, #26
 8001d18:	d512      	bpl.n	8001d40 <I2S_IRQHandler+0xf6>
 8001d1a:	685a      	ldr	r2, [r3, #4]
 8001d1c:	f022 02a0 	bic.w	r2, r2, #160	; 0xa0
 8001d20:	605a      	str	r2, [r3, #4]
 8001d22:	2200      	movs	r2, #0
 8001d24:	9203      	str	r2, [sp, #12]
 8001d26:	689b      	ldr	r3, [r3, #8]
 8001d28:	9303      	str	r3, [sp, #12]
 8001d2a:	9b03      	ldr	r3, [sp, #12]
 8001d2c:	2301      	movs	r3, #1
 8001d2e:	f884 3041 	strb.w	r3, [r4, #65]	; 0x41
 8001d32:	6c63      	ldr	r3, [r4, #68]	; 0x44
 8001d34:	f043 0304 	orr.w	r3, r3, #4
 8001d38:	6463      	str	r3, [r4, #68]	; 0x44
 8001d3a:	4620      	mov	r0, r4
 8001d3c:	f7ff ff84 	bl	8001c48 <HAL_I2S_ErrorCallback>
 8001d40:	b004      	add	sp, #16
 8001d42:	bd10      	pop	{r4, pc}

08001d44 <I2SEx_TxRxDMAError>:
 8001d44:	6b80      	ldr	r0, [r0, #56]	; 0x38
 8001d46:	490d      	ldr	r1, [pc, #52]	; (8001d7c <I2SEx_TxRxDMAError+0x38>)
 8001d48:	6802      	ldr	r2, [r0, #0]
 8001d4a:	6853      	ldr	r3, [r2, #4]
 8001d4c:	f023 0303 	bic.w	r3, r3, #3
 8001d50:	6053      	str	r3, [r2, #4]
 8001d52:	4b0b      	ldr	r3, [pc, #44]	; (8001d80 <I2SEx_TxRxDMAError+0x3c>)
 8001d54:	428a      	cmp	r2, r1
 8001d56:	bf18      	it	ne
 8001d58:	f04f 2340 	movne.w	r3, #1073758208	; 0x40004000
 8001d5c:	685a      	ldr	r2, [r3, #4]
 8001d5e:	f022 0203 	bic.w	r2, r2, #3
 8001d62:	605a      	str	r2, [r3, #4]
 8001d64:	2300      	movs	r3, #0
 8001d66:	8543      	strh	r3, [r0, #42]	; 0x2a
 8001d68:	8643      	strh	r3, [r0, #50]	; 0x32
 8001d6a:	2301      	movs	r3, #1
 8001d6c:	f880 3041 	strb.w	r3, [r0, #65]	; 0x41
 8001d70:	6c43      	ldr	r3, [r0, #68]	; 0x44
 8001d72:	f043 0308 	orr.w	r3, r3, #8
 8001d76:	6443      	str	r3, [r0, #68]	; 0x44
 8001d78:	f7ff bf66 	b.w	8001c48 <HAL_I2S_ErrorCallback>
 8001d7c:	40003800 	.word	0x40003800
 8001d80:	40003400 	.word	0x40003400

08001d84 <HAL_I2SEx_TransmitReceive_DMA>:
 8001d84:	e92d 41f3 	stmdb	sp!, {r0, r1, r4, r5, r6, r7, r8, lr}
 8001d88:	4604      	mov	r4, r0
 8001d8a:	f890 0041 	ldrb.w	r0, [r0, #65]	; 0x41
 8001d8e:	b2c0      	uxtb	r0, r0
 8001d90:	2801      	cmp	r0, #1
 8001d92:	460e      	mov	r6, r1
 8001d94:	4615      	mov	r5, r2
 8001d96:	f040 80b2 	bne.w	8001efe <HAL_I2SEx_TransmitReceive_DMA+0x17a>
 8001d9a:	2900      	cmp	r1, #0
 8001d9c:	d061      	beq.n	8001e62 <HAL_I2SEx_TransmitReceive_DMA+0xde>
 8001d9e:	2a00      	cmp	r2, #0
 8001da0:	d05f      	beq.n	8001e62 <HAL_I2SEx_TransmitReceive_DMA+0xde>
 8001da2:	2b00      	cmp	r3, #0
 8001da4:	d05d      	beq.n	8001e62 <HAL_I2SEx_TransmitReceive_DMA+0xde>
 8001da6:	f894 2040 	ldrb.w	r2, [r4, #64]	; 0x40
 8001daa:	2a01      	cmp	r2, #1
 8001dac:	f000 80a9 	beq.w	8001f02 <HAL_I2SEx_TransmitReceive_DMA+0x17e>
 8001db0:	6261      	str	r1, [r4, #36]	; 0x24
 8001db2:	6821      	ldr	r1, [r4, #0]
 8001db4:	f884 0040 	strb.w	r0, [r4, #64]	; 0x40
 8001db8:	69ca      	ldr	r2, [r1, #28]
 8001dba:	62e5      	str	r5, [r4, #44]	; 0x2c
 8001dbc:	f002 0207 	and.w	r2, r2, #7
 8001dc0:	2a03      	cmp	r2, #3
 8001dc2:	d001      	beq.n	8001dc8 <HAL_I2SEx_TransmitReceive_DMA+0x44>
 8001dc4:	2a05      	cmp	r2, #5
 8001dc6:	d101      	bne.n	8001dcc <HAL_I2SEx_TransmitReceive_DMA+0x48>
 8001dc8:	005b      	lsls	r3, r3, #1
 8001dca:	b29b      	uxth	r3, r3
 8001dcc:	8523      	strh	r3, [r4, #40]	; 0x28
 8001dce:	f8d4 e03c 	ldr.w	lr, [r4, #60]	; 0x3c
 8001dd2:	8563      	strh	r3, [r4, #42]	; 0x2a
 8001dd4:	6ba0      	ldr	r0, [r4, #56]	; 0x38
 8001dd6:	8623      	strh	r3, [r4, #48]	; 0x30
 8001dd8:	2200      	movs	r2, #0
 8001dda:	8663      	strh	r3, [r4, #50]	; 0x32
 8001ddc:	2305      	movs	r3, #5
 8001dde:	6462      	str	r2, [r4, #68]	; 0x44
 8001de0:	f8df c134 	ldr.w	ip, [pc, #308]	; 8001f18 <HAL_I2SEx_TransmitReceive_DMA+0x194>
 8001de4:	f884 3041 	strb.w	r3, [r4, #65]	; 0x41
 8001de8:	4f47      	ldr	r7, [pc, #284]	; (8001f08 <HAL_I2SEx_TransmitReceive_DMA+0x184>)
 8001dea:	4b48      	ldr	r3, [pc, #288]	; (8001f0c <HAL_I2SEx_TransmitReceive_DMA+0x188>)
 8001dec:	f8ce 304c 	str.w	r3, [lr, #76]	; 0x4c
 8001df0:	f8ce c040 	str.w	ip, [lr, #64]	; 0x40
 8001df4:	f8ce 703c 	str.w	r7, [lr, #60]	; 0x3c
 8001df8:	64c3      	str	r3, [r0, #76]	; 0x4c
 8001dfa:	69cb      	ldr	r3, [r1, #28]
 8001dfc:	f8c0 c040 	str.w	ip, [r0, #64]	; 0x40
 8001e00:	f413 7f80 	tst.w	r3, #256	; 0x100
 8001e04:	63c7      	str	r7, [r0, #60]	; 0x3c
 8001e06:	f8df 810c 	ldr.w	r8, [pc, #268]	; 8001f14 <HAL_I2SEx_TransmitReceive_DMA+0x190>
 8001e0a:	d13b      	bne.n	8001e84 <HAL_I2SEx_TransmitReceive_DMA+0x100>
 8001e0c:	4f40      	ldr	r7, [pc, #256]	; (8001f10 <HAL_I2SEx_TransmitReceive_DMA+0x18c>)
 8001e0e:	8e23      	ldrh	r3, [r4, #48]	; 0x30
 8001e10:	4541      	cmp	r1, r8
 8001e12:	bf0c      	ite	eq
 8001e14:	4639      	moveq	r1, r7
 8001e16:	f04f 2140 	movne.w	r1, #1073758208	; 0x40004000
 8001e1a:	b29b      	uxth	r3, r3
 8001e1c:	462a      	mov	r2, r5
 8001e1e:	310c      	adds	r1, #12
 8001e20:	4670      	mov	r0, lr
 8001e22:	f7ff f899 	bl	8000f58 <HAL_DMA_Start_IT>
 8001e26:	6822      	ldr	r2, [r4, #0]
 8001e28:	6ba0      	ldr	r0, [r4, #56]	; 0x38
 8001e2a:	4542      	cmp	r2, r8
 8001e2c:	bf0c      	ite	eq
 8001e2e:	4639      	moveq	r1, r7
 8001e30:	f04f 2140 	movne.w	r1, #1073758208	; 0x40004000
 8001e34:	320c      	adds	r2, #12
 8001e36:	684b      	ldr	r3, [r1, #4]
 8001e38:	f043 0301 	orr.w	r3, r3, #1
 8001e3c:	604b      	str	r3, [r1, #4]
 8001e3e:	8d23      	ldrh	r3, [r4, #40]	; 0x28
 8001e40:	4631      	mov	r1, r6
 8001e42:	b29b      	uxth	r3, r3
 8001e44:	f7ff f888 	bl	8000f58 <HAL_DMA_Start_IT>
 8001e48:	6823      	ldr	r3, [r4, #0]
 8001e4a:	685a      	ldr	r2, [r3, #4]
 8001e4c:	f042 0202 	orr.w	r2, r2, #2
 8001e50:	605a      	str	r2, [r3, #4]
 8001e52:	69d8      	ldr	r0, [r3, #28]
 8001e54:	f410 6080 	ands.w	r0, r0, #1024	; 0x400
 8001e58:	d006      	beq.n	8001e68 <HAL_I2SEx_TransmitReceive_DMA+0xe4>
 8001e5a:	2000      	movs	r0, #0
 8001e5c:	2300      	movs	r3, #0
 8001e5e:	f884 3040 	strb.w	r3, [r4, #64]	; 0x40
 8001e62:	b002      	add	sp, #8
 8001e64:	e8bd 81f0 	ldmia.w	sp!, {r4, r5, r6, r7, r8, pc}
 8001e68:	4543      	cmp	r3, r8
 8001e6a:	bf0c      	ite	eq
 8001e6c:	4639      	moveq	r1, r7
 8001e6e:	f04f 2140 	movne.w	r1, #1073758208	; 0x40004000
 8001e72:	69ca      	ldr	r2, [r1, #28]
 8001e74:	f442 6280 	orr.w	r2, r2, #1024	; 0x400
 8001e78:	61ca      	str	r2, [r1, #28]
 8001e7a:	69da      	ldr	r2, [r3, #28]
 8001e7c:	f442 6280 	orr.w	r2, r2, #1024	; 0x400
 8001e80:	61da      	str	r2, [r3, #28]
 8001e82:	e7eb      	b.n	8001e5c <HAL_I2SEx_TransmitReceive_DMA+0xd8>
 8001e84:	69cb      	ldr	r3, [r1, #28]
 8001e86:	f403 7340 	and.w	r3, r3, #768	; 0x300
 8001e8a:	f5b3 7f40 	cmp.w	r3, #768	; 0x300
 8001e8e:	d105      	bne.n	8001e9c <HAL_I2SEx_TransmitReceive_DMA+0x118>
 8001e90:	9201      	str	r2, [sp, #4]
 8001e92:	68cb      	ldr	r3, [r1, #12]
 8001e94:	9301      	str	r3, [sp, #4]
 8001e96:	688b      	ldr	r3, [r1, #8]
 8001e98:	9301      	str	r3, [sp, #4]
 8001e9a:	9b01      	ldr	r3, [sp, #4]
 8001e9c:	4f1c      	ldr	r7, [pc, #112]	; (8001f10 <HAL_I2SEx_TransmitReceive_DMA+0x18c>)
 8001e9e:	8d23      	ldrh	r3, [r4, #40]	; 0x28
 8001ea0:	4541      	cmp	r1, r8
 8001ea2:	bf0c      	ite	eq
 8001ea4:	4639      	moveq	r1, r7
 8001ea6:	f04f 2140 	movne.w	r1, #1073758208	; 0x40004000
 8001eaa:	f101 020c 	add.w	r2, r1, #12
 8001eae:	b29b      	uxth	r3, r3
 8001eb0:	4631      	mov	r1, r6
 8001eb2:	f7ff f851 	bl	8000f58 <HAL_DMA_Start_IT>
 8001eb6:	4e17      	ldr	r6, [pc, #92]	; (8001f14 <HAL_I2SEx_TransmitReceive_DMA+0x190>)
 8001eb8:	6821      	ldr	r1, [r4, #0]
 8001eba:	6be0      	ldr	r0, [r4, #60]	; 0x3c
 8001ebc:	42b1      	cmp	r1, r6
 8001ebe:	bf0c      	ite	eq
 8001ec0:	463a      	moveq	r2, r7
 8001ec2:	f04f 2240 	movne.w	r2, #1073758208	; 0x40004000
 8001ec6:	310c      	adds	r1, #12
 8001ec8:	6853      	ldr	r3, [r2, #4]
 8001eca:	f043 0302 	orr.w	r3, r3, #2
 8001ece:	6053      	str	r3, [r2, #4]
 8001ed0:	8e23      	ldrh	r3, [r4, #48]	; 0x30
 8001ed2:	462a      	mov	r2, r5
 8001ed4:	b29b      	uxth	r3, r3
 8001ed6:	f7ff f83f 	bl	8000f58 <HAL_DMA_Start_IT>
 8001eda:	6823      	ldr	r3, [r4, #0]
 8001edc:	685a      	ldr	r2, [r3, #4]
 8001ede:	f042 0201 	orr.w	r2, r2, #1
 8001ee2:	605a      	str	r2, [r3, #4]
 8001ee4:	69d8      	ldr	r0, [r3, #28]
 8001ee6:	f410 6080 	ands.w	r0, r0, #1024	; 0x400
 8001eea:	d1b6      	bne.n	8001e5a <HAL_I2SEx_TransmitReceive_DMA+0xd6>
 8001eec:	42b3      	cmp	r3, r6
 8001eee:	bf18      	it	ne
 8001ef0:	f04f 2740 	movne.w	r7, #1073758208	; 0x40004000
 8001ef4:	69fa      	ldr	r2, [r7, #28]
 8001ef6:	f442 6280 	orr.w	r2, r2, #1024	; 0x400
 8001efa:	61fa      	str	r2, [r7, #28]
 8001efc:	e7bd      	b.n	8001e7a <HAL_I2SEx_TransmitReceive_DMA+0xf6>
 8001efe:	2002      	movs	r0, #2
 8001f00:	e7ac      	b.n	8001e5c <HAL_I2SEx_TransmitReceive_DMA+0xd8>
 8001f02:	2002      	movs	r0, #2
 8001f04:	e7ad      	b.n	8001e62 <HAL_I2SEx_TransmitReceive_DMA+0xde>
 8001f06:	bf00      	nop
 8001f08:	08001f29 	.word	0x08001f29
 8001f0c:	08001d45 	.word	0x08001d45
 8001f10:	40003400 	.word	0x40003400
 8001f14:	40003800 	.word	0x40003800
 8001f18:	08001f1d 	.word	0x08001f1d

08001f1c <I2SEx_TxRxDMAHalfCplt>:
 8001f1c:	b508      	push	{r3, lr}
 8001f1e:	6b80      	ldr	r0, [r0, #56]	; 0x38
 8001f20:	f000 ff2c 	bl	8002d7c <HAL_I2SEx_TxRxHalfCpltCallback>
 8001f24:	bd08      	pop	{r3, pc}
	...

08001f28 <I2SEx_TxRxDMACplt>:
 8001f28:	b538      	push	{r3, r4, r5, lr}
 8001f2a:	69c3      	ldr	r3, [r0, #28]
 8001f2c:	6b84      	ldr	r4, [r0, #56]	; 0x38
 8001f2e:	4605      	mov	r5, r0
 8001f30:	2b00      	cmp	r3, #0
 8001f32:	d140      	bne.n	8001fb6 <I2SEx_TxRxDMACplt+0x8e>
 8001f34:	6be3      	ldr	r3, [r4, #60]	; 0x3c
 8001f36:	4298      	cmp	r0, r3
 8001f38:	d120      	bne.n	8001f7c <I2SEx_TxRxDMACplt+0x54>
 8001f3a:	6823      	ldr	r3, [r4, #0]
 8001f3c:	69da      	ldr	r2, [r3, #28]
 8001f3e:	f402 7240 	and.w	r2, r2, #768	; 0x300
 8001f42:	f5b2 7f00 	cmp.w	r2, #512	; 0x200
 8001f46:	d003      	beq.n	8001f50 <I2SEx_TxRxDMACplt+0x28>
 8001f48:	69da      	ldr	r2, [r3, #28]
 8001f4a:	f412 7f40 	tst.w	r2, #768	; 0x300
 8001f4e:	d106      	bne.n	8001f5e <I2SEx_TxRxDMACplt+0x36>
 8001f50:	4a1f      	ldr	r2, [pc, #124]	; (8001fd0 <I2SEx_TxRxDMACplt+0xa8>)
 8001f52:	4920      	ldr	r1, [pc, #128]	; (8001fd4 <I2SEx_TxRxDMACplt+0xac>)
 8001f54:	428b      	cmp	r3, r1
 8001f56:	bf0c      	ite	eq
 8001f58:	4613      	moveq	r3, r2
 8001f5a:	f04f 2340 	movne.w	r3, #1073758208	; 0x40004000
 8001f5e:	685a      	ldr	r2, [r3, #4]
 8001f60:	f022 0201 	bic.w	r2, r2, #1
 8001f64:	605a      	str	r2, [r3, #4]
 8001f66:	2300      	movs	r3, #0
 8001f68:	8663      	strh	r3, [r4, #50]	; 0x32
 8001f6a:	8d63      	ldrh	r3, [r4, #42]	; 0x2a
 8001f6c:	b29b      	uxth	r3, r3
 8001f6e:	b92b      	cbnz	r3, 8001f7c <I2SEx_TxRxDMACplt+0x54>
 8001f70:	2301      	movs	r3, #1
 8001f72:	f884 3041 	strb.w	r3, [r4, #65]	; 0x41
 8001f76:	4620      	mov	r0, r4
 8001f78:	f000 ff0a 	bl	8002d90 <HAL_I2SEx_TxRxCpltCallback>
 8001f7c:	6ba3      	ldr	r3, [r4, #56]	; 0x38
 8001f7e:	429d      	cmp	r5, r3
 8001f80:	d119      	bne.n	8001fb6 <I2SEx_TxRxDMACplt+0x8e>
 8001f82:	6823      	ldr	r3, [r4, #0]
 8001f84:	69da      	ldr	r2, [r3, #28]
 8001f86:	f402 7240 	and.w	r2, r2, #768	; 0x300
 8001f8a:	f5b2 7f00 	cmp.w	r2, #512	; 0x200
 8001f8e:	d003      	beq.n	8001f98 <I2SEx_TxRxDMACplt+0x70>
 8001f90:	69da      	ldr	r2, [r3, #28]
 8001f92:	f412 7f40 	tst.w	r2, #768	; 0x300
 8001f96:	d112      	bne.n	8001fbe <I2SEx_TxRxDMACplt+0x96>
 8001f98:	685a      	ldr	r2, [r3, #4]
 8001f9a:	f022 0202 	bic.w	r2, r2, #2
 8001f9e:	605a      	str	r2, [r3, #4]
 8001fa0:	2300      	movs	r3, #0
 8001fa2:	8563      	strh	r3, [r4, #42]	; 0x2a
 8001fa4:	8e63      	ldrh	r3, [r4, #50]	; 0x32
 8001fa6:	b29b      	uxth	r3, r3
 8001fa8:	b92b      	cbnz	r3, 8001fb6 <I2SEx_TxRxDMACplt+0x8e>
 8001faa:	2301      	movs	r3, #1
 8001fac:	f884 3041 	strb.w	r3, [r4, #65]	; 0x41
 8001fb0:	4620      	mov	r0, r4
 8001fb2:	f000 feed 	bl	8002d90 <HAL_I2SEx_TxRxCpltCallback>
 8001fb6:	4620      	mov	r0, r4
 8001fb8:	f000 feea 	bl	8002d90 <HAL_I2SEx_TxRxCpltCallback>
 8001fbc:	bd38      	pop	{r3, r4, r5, pc}
 8001fbe:	4a04      	ldr	r2, [pc, #16]	; (8001fd0 <I2SEx_TxRxDMACplt+0xa8>)
 8001fc0:	4904      	ldr	r1, [pc, #16]	; (8001fd4 <I2SEx_TxRxDMACplt+0xac>)
 8001fc2:	428b      	cmp	r3, r1
 8001fc4:	bf0c      	ite	eq
 8001fc6:	4613      	moveq	r3, r2
 8001fc8:	f04f 2340 	movne.w	r3, #1073758208	; 0x40004000
 8001fcc:	e7e4      	b.n	8001f98 <I2SEx_TxRxDMACplt+0x70>
 8001fce:	bf00      	nop
 8001fd0:	40003400 	.word	0x40003400
 8001fd4:	40003800 	.word	0x40003800

08001fd8 <HAL_I2SEx_FullDuplex_IRQHandler>:
 8001fd8:	b510      	push	{r4, lr}
 8001fda:	6802      	ldr	r2, [r0, #0]
 8001fdc:	498b      	ldr	r1, [pc, #556]	; (800220c <HAL_I2SEx_FullDuplex_IRQHandler+0x234>)
 8001fde:	6893      	ldr	r3, [r2, #8]
 8001fe0:	b086      	sub	sp, #24
 8001fe2:	4604      	mov	r4, r0
 8001fe4:	9300      	str	r3, [sp, #0]
 8001fe6:	4b8a      	ldr	r3, [pc, #552]	; (8002210 <HAL_I2SEx_FullDuplex_IRQHandler+0x238>)
 8001fe8:	428a      	cmp	r2, r1
 8001fea:	bf18      	it	ne
 8001fec:	f04f 2340 	movne.w	r3, #1073758208	; 0x40004000
 8001ff0:	6899      	ldr	r1, [r3, #8]
 8001ff2:	9101      	str	r1, [sp, #4]
 8001ff4:	6851      	ldr	r1, [r2, #4]
 8001ff6:	9102      	str	r1, [sp, #8]
 8001ff8:	6859      	ldr	r1, [r3, #4]
 8001ffa:	9103      	str	r1, [sp, #12]
 8001ffc:	6841      	ldr	r1, [r0, #4]
 8001ffe:	f431 7100 	bics.w	r1, r1, #512	; 0x200
 8002002:	f040 8090 	bne.w	8002126 <HAL_I2SEx_FullDuplex_IRQHandler+0x14e>
 8002006:	9b00      	ldr	r3, [sp, #0]
 8002008:	0799      	lsls	r1, r3, #30
 800200a:	d51a      	bpl.n	8002042 <HAL_I2SEx_FullDuplex_IRQHandler+0x6a>
 800200c:	9b02      	ldr	r3, [sp, #8]
 800200e:	061b      	lsls	r3, r3, #24
 8002010:	d517      	bpl.n	8002042 <HAL_I2SEx_FullDuplex_IRQHandler+0x6a>
 8002012:	6a43      	ldr	r3, [r0, #36]	; 0x24
 8002014:	1c99      	adds	r1, r3, #2
 8002016:	881b      	ldrh	r3, [r3, #0]
 8002018:	6241      	str	r1, [r0, #36]	; 0x24
 800201a:	60d3      	str	r3, [r2, #12]
 800201c:	8d43      	ldrh	r3, [r0, #42]	; 0x2a
 800201e:	3b01      	subs	r3, #1
 8002020:	b29b      	uxth	r3, r3
 8002022:	8543      	strh	r3, [r0, #42]	; 0x2a
 8002024:	8d43      	ldrh	r3, [r0, #42]	; 0x2a
 8002026:	b29b      	uxth	r3, r3
 8002028:	b95b      	cbnz	r3, 8002042 <HAL_I2SEx_FullDuplex_IRQHandler+0x6a>
 800202a:	6853      	ldr	r3, [r2, #4]
 800202c:	f023 03a0 	bic.w	r3, r3, #160	; 0xa0
 8002030:	6053      	str	r3, [r2, #4]
 8002032:	8e43      	ldrh	r3, [r0, #50]	; 0x32
 8002034:	b29b      	uxth	r3, r3
 8002036:	b923      	cbnz	r3, 8002042 <HAL_I2SEx_FullDuplex_IRQHandler+0x6a>
 8002038:	2301      	movs	r3, #1
 800203a:	f880 3041 	strb.w	r3, [r0, #65]	; 0x41
 800203e:	f000 fea7 	bl	8002d90 <HAL_I2SEx_TxRxCpltCallback>
 8002042:	9b01      	ldr	r3, [sp, #4]
 8002044:	07d8      	lsls	r0, r3, #31
 8002046:	d522      	bpl.n	800208e <HAL_I2SEx_FullDuplex_IRQHandler+0xb6>
 8002048:	9b03      	ldr	r3, [sp, #12]
 800204a:	0659      	lsls	r1, r3, #25
 800204c:	d51f      	bpl.n	800208e <HAL_I2SEx_FullDuplex_IRQHandler+0xb6>
 800204e:	6ae2      	ldr	r2, [r4, #44]	; 0x2c
 8002050:	6820      	ldr	r0, [r4, #0]
 8002052:	496e      	ldr	r1, [pc, #440]	; (800220c <HAL_I2SEx_FullDuplex_IRQHandler+0x234>)
 8002054:	1c93      	adds	r3, r2, #2
 8002056:	62e3      	str	r3, [r4, #44]	; 0x2c
 8002058:	4b6d      	ldr	r3, [pc, #436]	; (8002210 <HAL_I2SEx_FullDuplex_IRQHandler+0x238>)
 800205a:	4288      	cmp	r0, r1
 800205c:	bf18      	it	ne
 800205e:	f04f 2340 	movne.w	r3, #1073758208	; 0x40004000
 8002062:	68d9      	ldr	r1, [r3, #12]
 8002064:	8011      	strh	r1, [r2, #0]
 8002066:	8e62      	ldrh	r2, [r4, #50]	; 0x32
 8002068:	3a01      	subs	r2, #1
 800206a:	b292      	uxth	r2, r2
 800206c:	8662      	strh	r2, [r4, #50]	; 0x32
 800206e:	8e62      	ldrh	r2, [r4, #50]	; 0x32
 8002070:	b292      	uxth	r2, r2
 8002072:	b962      	cbnz	r2, 800208e <HAL_I2SEx_FullDuplex_IRQHandler+0xb6>
 8002074:	685a      	ldr	r2, [r3, #4]
 8002076:	f022 0260 	bic.w	r2, r2, #96	; 0x60
 800207a:	605a      	str	r2, [r3, #4]
 800207c:	8d63      	ldrh	r3, [r4, #42]	; 0x2a
 800207e:	b29b      	uxth	r3, r3
 8002080:	b92b      	cbnz	r3, 800208e <HAL_I2SEx_FullDuplex_IRQHandler+0xb6>
 8002082:	2301      	movs	r3, #1
 8002084:	f884 3041 	strb.w	r3, [r4, #65]	; 0x41
 8002088:	4620      	mov	r0, r4
 800208a:	f000 fe81 	bl	8002d90 <HAL_I2SEx_TxRxCpltCallback>
 800208e:	9b01      	ldr	r3, [sp, #4]
 8002090:	065a      	lsls	r2, r3, #25
 8002092:	d522      	bpl.n	80020da <HAL_I2SEx_FullDuplex_IRQHandler+0x102>
 8002094:	9b03      	ldr	r3, [sp, #12]
 8002096:	069b      	lsls	r3, r3, #26
 8002098:	d51f      	bpl.n	80020da <HAL_I2SEx_FullDuplex_IRQHandler+0x102>
 800209a:	6823      	ldr	r3, [r4, #0]
 800209c:	495b      	ldr	r1, [pc, #364]	; (800220c <HAL_I2SEx_FullDuplex_IRQHandler+0x234>)
 800209e:	4a5c      	ldr	r2, [pc, #368]	; (8002210 <HAL_I2SEx_FullDuplex_IRQHandler+0x238>)
 80020a0:	428b      	cmp	r3, r1
 80020a2:	bf18      	it	ne
 80020a4:	f04f 2240 	movne.w	r2, #1073758208	; 0x40004000
 80020a8:	4620      	mov	r0, r4
 80020aa:	6851      	ldr	r1, [r2, #4]
 80020ac:	f021 0160 	bic.w	r1, r1, #96	; 0x60
 80020b0:	6051      	str	r1, [r2, #4]
 80020b2:	685a      	ldr	r2, [r3, #4]
 80020b4:	f022 02a0 	bic.w	r2, r2, #160	; 0xa0
 80020b8:	605a      	str	r2, [r3, #4]
 80020ba:	2200      	movs	r2, #0
 80020bc:	9204      	str	r2, [sp, #16]
 80020be:	68da      	ldr	r2, [r3, #12]
 80020c0:	9204      	str	r2, [sp, #16]
 80020c2:	689b      	ldr	r3, [r3, #8]
 80020c4:	9304      	str	r3, [sp, #16]
 80020c6:	9b04      	ldr	r3, [sp, #16]
 80020c8:	2301      	movs	r3, #1
 80020ca:	f884 3041 	strb.w	r3, [r4, #65]	; 0x41
 80020ce:	6c63      	ldr	r3, [r4, #68]	; 0x44
 80020d0:	f043 0302 	orr.w	r3, r3, #2
 80020d4:	6463      	str	r3, [r4, #68]	; 0x44
 80020d6:	f7ff fdb7 	bl	8001c48 <HAL_I2S_ErrorCallback>
 80020da:	9b00      	ldr	r3, [sp, #0]
 80020dc:	0718      	lsls	r0, r3, #28
 80020de:	d520      	bpl.n	8002122 <HAL_I2SEx_FullDuplex_IRQHandler+0x14a>
 80020e0:	9b02      	ldr	r3, [sp, #8]
 80020e2:	0699      	lsls	r1, r3, #26
 80020e4:	d51d      	bpl.n	8002122 <HAL_I2SEx_FullDuplex_IRQHandler+0x14a>
 80020e6:	6823      	ldr	r3, [r4, #0]
 80020e8:	4948      	ldr	r1, [pc, #288]	; (800220c <HAL_I2SEx_FullDuplex_IRQHandler+0x234>)
 80020ea:	685a      	ldr	r2, [r3, #4]
 80020ec:	f022 02a0 	bic.w	r2, r2, #160	; 0xa0
 80020f0:	605a      	str	r2, [r3, #4]
 80020f2:	4a47      	ldr	r2, [pc, #284]	; (8002210 <HAL_I2SEx_FullDuplex_IRQHandler+0x238>)
 80020f4:	428b      	cmp	r3, r1
 80020f6:	bf18      	it	ne
 80020f8:	f04f 2240 	movne.w	r2, #1073758208	; 0x40004000
 80020fc:	6851      	ldr	r1, [r2, #4]
 80020fe:	f021 0160 	bic.w	r1, r1, #96	; 0x60
 8002102:	6051      	str	r1, [r2, #4]
 8002104:	2200      	movs	r2, #0
 8002106:	9205      	str	r2, [sp, #20]
 8002108:	689b      	ldr	r3, [r3, #8]
 800210a:	9305      	str	r3, [sp, #20]
 800210c:	9b05      	ldr	r3, [sp, #20]
 800210e:	2301      	movs	r3, #1
 8002110:	f884 3041 	strb.w	r3, [r4, #65]	; 0x41
 8002114:	6c63      	ldr	r3, [r4, #68]	; 0x44
 8002116:	f043 0304 	orr.w	r3, r3, #4
 800211a:	6463      	str	r3, [r4, #68]	; 0x44
 800211c:	4620      	mov	r0, r4
 800211e:	f7ff fd93 	bl	8001c48 <HAL_I2S_ErrorCallback>
 8002122:	b006      	add	sp, #24
 8002124:	bd10      	pop	{r4, pc}
 8002126:	9a01      	ldr	r2, [sp, #4]
 8002128:	0792      	lsls	r2, r2, #30
 800212a:	d51a      	bpl.n	8002162 <HAL_I2SEx_FullDuplex_IRQHandler+0x18a>
 800212c:	9a03      	ldr	r2, [sp, #12]
 800212e:	0611      	lsls	r1, r2, #24
 8002130:	d517      	bpl.n	8002162 <HAL_I2SEx_FullDuplex_IRQHandler+0x18a>
 8002132:	6a42      	ldr	r2, [r0, #36]	; 0x24
 8002134:	1c91      	adds	r1, r2, #2
 8002136:	8812      	ldrh	r2, [r2, #0]
 8002138:	6241      	str	r1, [r0, #36]	; 0x24
 800213a:	60da      	str	r2, [r3, #12]
 800213c:	8d42      	ldrh	r2, [r0, #42]	; 0x2a
 800213e:	3a01      	subs	r2, #1
 8002140:	b292      	uxth	r2, r2
 8002142:	8542      	strh	r2, [r0, #42]	; 0x2a
 8002144:	8d42      	ldrh	r2, [r0, #42]	; 0x2a
 8002146:	b292      	uxth	r2, r2
 8002148:	b95a      	cbnz	r2, 8002162 <HAL_I2SEx_FullDuplex_IRQHandler+0x18a>
 800214a:	685a      	ldr	r2, [r3, #4]
 800214c:	f022 02a0 	bic.w	r2, r2, #160	; 0xa0
 8002150:	605a      	str	r2, [r3, #4]
 8002152:	8e43      	ldrh	r3, [r0, #50]	; 0x32
 8002154:	b29b      	uxth	r3, r3
 8002156:	b923      	cbnz	r3, 8002162 <HAL_I2SEx_FullDuplex_IRQHandler+0x18a>
 8002158:	2301      	movs	r3, #1
 800215a:	f880 3041 	strb.w	r3, [r0, #65]	; 0x41
 800215e:	f000 fe17 	bl	8002d90 <HAL_I2SEx_TxRxCpltCallback>
 8002162:	9b00      	ldr	r3, [sp, #0]
 8002164:	07da      	lsls	r2, r3, #31
 8002166:	d51c      	bpl.n	80021a2 <HAL_I2SEx_FullDuplex_IRQHandler+0x1ca>
 8002168:	9b02      	ldr	r3, [sp, #8]
 800216a:	065b      	lsls	r3, r3, #25
 800216c:	d519      	bpl.n	80021a2 <HAL_I2SEx_FullDuplex_IRQHandler+0x1ca>
 800216e:	6ae3      	ldr	r3, [r4, #44]	; 0x2c
 8002170:	1c9a      	adds	r2, r3, #2
 8002172:	62e2      	str	r2, [r4, #44]	; 0x2c
 8002174:	6822      	ldr	r2, [r4, #0]
 8002176:	68d1      	ldr	r1, [r2, #12]
 8002178:	8019      	strh	r1, [r3, #0]
 800217a:	8e63      	ldrh	r3, [r4, #50]	; 0x32
 800217c:	3b01      	subs	r3, #1
 800217e:	b29b      	uxth	r3, r3
 8002180:	8663      	strh	r3, [r4, #50]	; 0x32
 8002182:	8e63      	ldrh	r3, [r4, #50]	; 0x32
 8002184:	b29b      	uxth	r3, r3
 8002186:	b963      	cbnz	r3, 80021a2 <HAL_I2SEx_FullDuplex_IRQHandler+0x1ca>
 8002188:	6853      	ldr	r3, [r2, #4]
 800218a:	f023 0360 	bic.w	r3, r3, #96	; 0x60
 800218e:	6053      	str	r3, [r2, #4]
 8002190:	8d63      	ldrh	r3, [r4, #42]	; 0x2a
 8002192:	b29b      	uxth	r3, r3
 8002194:	b92b      	cbnz	r3, 80021a2 <HAL_I2SEx_FullDuplex_IRQHandler+0x1ca>
 8002196:	2301      	movs	r3, #1
 8002198:	f884 3041 	strb.w	r3, [r4, #65]	; 0x41
 800219c:	4620      	mov	r0, r4
 800219e:	f000 fdf7 	bl	8002d90 <HAL_I2SEx_TxRxCpltCallback>
 80021a2:	9b00      	ldr	r3, [sp, #0]
 80021a4:	0658      	lsls	r0, r3, #25
 80021a6:	d51b      	bpl.n	80021e0 <HAL_I2SEx_FullDuplex_IRQHandler+0x208>
 80021a8:	9b02      	ldr	r3, [sp, #8]
 80021aa:	0699      	lsls	r1, r3, #26
 80021ac:	d518      	bpl.n	80021e0 <HAL_I2SEx_FullDuplex_IRQHandler+0x208>
 80021ae:	6822      	ldr	r2, [r4, #0]
 80021b0:	4916      	ldr	r1, [pc, #88]	; (800220c <HAL_I2SEx_FullDuplex_IRQHandler+0x234>)
 80021b2:	6853      	ldr	r3, [r2, #4]
 80021b4:	f023 0360 	bic.w	r3, r3, #96	; 0x60
 80021b8:	6053      	str	r3, [r2, #4]
 80021ba:	4b15      	ldr	r3, [pc, #84]	; (8002210 <HAL_I2SEx_FullDuplex_IRQHandler+0x238>)
 80021bc:	428a      	cmp	r2, r1
 80021be:	bf18      	it	ne
 80021c0:	f04f 2340 	movne.w	r3, #1073758208	; 0x40004000
 80021c4:	4620      	mov	r0, r4
 80021c6:	685a      	ldr	r2, [r3, #4]
 80021c8:	f022 02a0 	bic.w	r2, r2, #160	; 0xa0
 80021cc:	605a      	str	r2, [r3, #4]
 80021ce:	2301      	movs	r3, #1
 80021d0:	f884 3041 	strb.w	r3, [r4, #65]	; 0x41
 80021d4:	6c63      	ldr	r3, [r4, #68]	; 0x44
 80021d6:	f043 0302 	orr.w	r3, r3, #2
 80021da:	6463      	str	r3, [r4, #68]	; 0x44
 80021dc:	f7ff fd34 	bl	8001c48 <HAL_I2S_ErrorCallback>
 80021e0:	9b01      	ldr	r3, [sp, #4]
 80021e2:	071a      	lsls	r2, r3, #28
 80021e4:	d59d      	bpl.n	8002122 <HAL_I2SEx_FullDuplex_IRQHandler+0x14a>
 80021e6:	9b03      	ldr	r3, [sp, #12]
 80021e8:	069b      	lsls	r3, r3, #26
 80021ea:	d59a      	bpl.n	8002122 <HAL_I2SEx_FullDuplex_IRQHandler+0x14a>
 80021ec:	6822      	ldr	r2, [r4, #0]
 80021ee:	4907      	ldr	r1, [pc, #28]	; (800220c <HAL_I2SEx_FullDuplex_IRQHandler+0x234>)
 80021f0:	4b07      	ldr	r3, [pc, #28]	; (8002210 <HAL_I2SEx_FullDuplex_IRQHandler+0x238>)
 80021f2:	428a      	cmp	r2, r1
 80021f4:	bf18      	it	ne
 80021f6:	f04f 2340 	movne.w	r3, #1073758208	; 0x40004000
 80021fa:	6859      	ldr	r1, [r3, #4]
 80021fc:	f021 01a0 	bic.w	r1, r1, #160	; 0xa0
 8002200:	6059      	str	r1, [r3, #4]
 8002202:	6853      	ldr	r3, [r2, #4]
 8002204:	f023 0360 	bic.w	r3, r3, #96	; 0x60
 8002208:	6053      	str	r3, [r2, #4]
 800220a:	e780      	b.n	800210e <HAL_I2SEx_FullDuplex_IRQHandler+0x136>
 800220c:	40003800 	.word	0x40003800
 8002210:	40003400 	.word	0x40003400

08002214 <HAL_RCC_OscConfig>:
 8002214:	e92d 41f3 	stmdb	sp!, {r0, r1, r4, r5, r6, r7, r8, lr}
 8002218:	4604      	mov	r4, r0
 800221a:	b908      	cbnz	r0, 8002220 <HAL_RCC_OscConfig+0xc>
 800221c:	2001      	movs	r0, #1
 800221e:	e03f      	b.n	80022a0 <HAL_RCC_OscConfig+0x8c>
 8002220:	6803      	ldr	r3, [r0, #0]
 8002222:	07dd      	lsls	r5, r3, #31
 8002224:	d410      	bmi.n	8002248 <HAL_RCC_OscConfig+0x34>
 8002226:	6823      	ldr	r3, [r4, #0]
 8002228:	0798      	lsls	r0, r3, #30
 800222a:	d45a      	bmi.n	80022e2 <HAL_RCC_OscConfig+0xce>
 800222c:	6823      	ldr	r3, [r4, #0]
 800222e:	071a      	lsls	r2, r3, #28
 8002230:	f100 809c 	bmi.w	800236c <HAL_RCC_OscConfig+0x158>
 8002234:	6823      	ldr	r3, [r4, #0]
 8002236:	075b      	lsls	r3, r3, #29
 8002238:	f100 80ba 	bmi.w	80023b0 <HAL_RCC_OscConfig+0x19c>
 800223c:	69a0      	ldr	r0, [r4, #24]
 800223e:	2800      	cmp	r0, #0
 8002240:	f040 811b 	bne.w	800247a <HAL_RCC_OscConfig+0x266>
 8002244:	2000      	movs	r0, #0
 8002246:	e02b      	b.n	80022a0 <HAL_RCC_OscConfig+0x8c>
 8002248:	4ba4      	ldr	r3, [pc, #656]	; (80024dc <HAL_RCC_OscConfig+0x2c8>)
 800224a:	689a      	ldr	r2, [r3, #8]
 800224c:	f002 020c 	and.w	r2, r2, #12
 8002250:	2a04      	cmp	r2, #4
 8002252:	d007      	beq.n	8002264 <HAL_RCC_OscConfig+0x50>
 8002254:	689a      	ldr	r2, [r3, #8]
 8002256:	f002 020c 	and.w	r2, r2, #12
 800225a:	2a08      	cmp	r2, #8
 800225c:	d10a      	bne.n	8002274 <HAL_RCC_OscConfig+0x60>
 800225e:	685b      	ldr	r3, [r3, #4]
 8002260:	0259      	lsls	r1, r3, #9
 8002262:	d507      	bpl.n	8002274 <HAL_RCC_OscConfig+0x60>
 8002264:	4b9d      	ldr	r3, [pc, #628]	; (80024dc <HAL_RCC_OscConfig+0x2c8>)
 8002266:	681b      	ldr	r3, [r3, #0]
 8002268:	039a      	lsls	r2, r3, #14
 800226a:	d5dc      	bpl.n	8002226 <HAL_RCC_OscConfig+0x12>
 800226c:	6863      	ldr	r3, [r4, #4]
 800226e:	2b00      	cmp	r3, #0
 8002270:	d1d9      	bne.n	8002226 <HAL_RCC_OscConfig+0x12>
 8002272:	e7d3      	b.n	800221c <HAL_RCC_OscConfig+0x8>
 8002274:	6863      	ldr	r3, [r4, #4]
 8002276:	4d99      	ldr	r5, [pc, #612]	; (80024dc <HAL_RCC_OscConfig+0x2c8>)
 8002278:	f5b3 3f80 	cmp.w	r3, #65536	; 0x10000
 800227c:	d113      	bne.n	80022a6 <HAL_RCC_OscConfig+0x92>
 800227e:	682b      	ldr	r3, [r5, #0]
 8002280:	f443 3380 	orr.w	r3, r3, #65536	; 0x10000
 8002284:	602b      	str	r3, [r5, #0]
 8002286:	f7fe fd63 	bl	8000d50 <HAL_GetTick>
 800228a:	4d94      	ldr	r5, [pc, #592]	; (80024dc <HAL_RCC_OscConfig+0x2c8>)
 800228c:	4606      	mov	r6, r0
 800228e:	682b      	ldr	r3, [r5, #0]
 8002290:	039b      	lsls	r3, r3, #14
 8002292:	d4c8      	bmi.n	8002226 <HAL_RCC_OscConfig+0x12>
 8002294:	f7fe fd5c 	bl	8000d50 <HAL_GetTick>
 8002298:	1b80      	subs	r0, r0, r6
 800229a:	2864      	cmp	r0, #100	; 0x64
 800229c:	d9f7      	bls.n	800228e <HAL_RCC_OscConfig+0x7a>
 800229e:	2003      	movs	r0, #3
 80022a0:	b002      	add	sp, #8
 80022a2:	e8bd 81f0 	ldmia.w	sp!, {r4, r5, r6, r7, r8, pc}
 80022a6:	f5b3 2fa0 	cmp.w	r3, #327680	; 0x50000
 80022aa:	d104      	bne.n	80022b6 <HAL_RCC_OscConfig+0xa2>
 80022ac:	682b      	ldr	r3, [r5, #0]
 80022ae:	f443 2380 	orr.w	r3, r3, #262144	; 0x40000
 80022b2:	602b      	str	r3, [r5, #0]
 80022b4:	e7e3      	b.n	800227e <HAL_RCC_OscConfig+0x6a>
 80022b6:	682a      	ldr	r2, [r5, #0]
 80022b8:	f422 3280 	bic.w	r2, r2, #65536	; 0x10000
 80022bc:	602a      	str	r2, [r5, #0]
 80022be:	682a      	ldr	r2, [r5, #0]
 80022c0:	f422 2280 	bic.w	r2, r2, #262144	; 0x40000
 80022c4:	602a      	str	r2, [r5, #0]
 80022c6:	2b00      	cmp	r3, #0
 80022c8:	d1dd      	bne.n	8002286 <HAL_RCC_OscConfig+0x72>
 80022ca:	f7fe fd41 	bl	8000d50 <HAL_GetTick>
 80022ce:	4606      	mov	r6, r0
 80022d0:	682b      	ldr	r3, [r5, #0]
 80022d2:	039f      	lsls	r7, r3, #14
 80022d4:	d5a7      	bpl.n	8002226 <HAL_RCC_OscConfig+0x12>
 80022d6:	f7fe fd3b 	bl	8000d50 <HAL_GetTick>
 80022da:	1b80      	subs	r0, r0, r6
 80022dc:	2864      	cmp	r0, #100	; 0x64
 80022de:	d9f7      	bls.n	80022d0 <HAL_RCC_OscConfig+0xbc>
 80022e0:	e7dd      	b.n	800229e <HAL_RCC_OscConfig+0x8a>
 80022e2:	4b7e      	ldr	r3, [pc, #504]	; (80024dc <HAL_RCC_OscConfig+0x2c8>)
 80022e4:	689a      	ldr	r2, [r3, #8]
 80022e6:	f012 0f0c 	tst.w	r2, #12
 80022ea:	d007      	beq.n	80022fc <HAL_RCC_OscConfig+0xe8>
 80022ec:	689a      	ldr	r2, [r3, #8]
 80022ee:	f002 020c 	and.w	r2, r2, #12
 80022f2:	2a08      	cmp	r2, #8
 80022f4:	d111      	bne.n	800231a <HAL_RCC_OscConfig+0x106>
 80022f6:	685b      	ldr	r3, [r3, #4]
 80022f8:	025e      	lsls	r6, r3, #9
 80022fa:	d40e      	bmi.n	800231a <HAL_RCC_OscConfig+0x106>
 80022fc:	4b77      	ldr	r3, [pc, #476]	; (80024dc <HAL_RCC_OscConfig+0x2c8>)
 80022fe:	681a      	ldr	r2, [r3, #0]
 8002300:	0795      	lsls	r5, r2, #30
 8002302:	d502      	bpl.n	800230a <HAL_RCC_OscConfig+0xf6>
 8002304:	68e2      	ldr	r2, [r4, #12]
 8002306:	2a01      	cmp	r2, #1
 8002308:	d188      	bne.n	800221c <HAL_RCC_OscConfig+0x8>
 800230a:	681a      	ldr	r2, [r3, #0]
 800230c:	6921      	ldr	r1, [r4, #16]
 800230e:	f022 02f8 	bic.w	r2, r2, #248	; 0xf8
 8002312:	ea42 02c1 	orr.w	r2, r2, r1, lsl #3
 8002316:	601a      	str	r2, [r3, #0]
 8002318:	e788      	b.n	800222c <HAL_RCC_OscConfig+0x18>
 800231a:	68e2      	ldr	r2, [r4, #12]
 800231c:	4b70      	ldr	r3, [pc, #448]	; (80024e0 <HAL_RCC_OscConfig+0x2cc>)
 800231e:	b1b2      	cbz	r2, 800234e <HAL_RCC_OscConfig+0x13a>
 8002320:	2201      	movs	r2, #1
 8002322:	601a      	str	r2, [r3, #0]
 8002324:	f7fe fd14 	bl	8000d50 <HAL_GetTick>
 8002328:	4d6c      	ldr	r5, [pc, #432]	; (80024dc <HAL_RCC_OscConfig+0x2c8>)
 800232a:	4606      	mov	r6, r0
 800232c:	682b      	ldr	r3, [r5, #0]
 800232e:	0798      	lsls	r0, r3, #30
 8002330:	d507      	bpl.n	8002342 <HAL_RCC_OscConfig+0x12e>
 8002332:	682b      	ldr	r3, [r5, #0]
 8002334:	6922      	ldr	r2, [r4, #16]
 8002336:	f023 03f8 	bic.w	r3, r3, #248	; 0xf8
 800233a:	ea43 03c2 	orr.w	r3, r3, r2, lsl #3
 800233e:	602b      	str	r3, [r5, #0]
 8002340:	e774      	b.n	800222c <HAL_RCC_OscConfig+0x18>
 8002342:	f7fe fd05 	bl	8000d50 <HAL_GetTick>
 8002346:	1b80      	subs	r0, r0, r6
 8002348:	2802      	cmp	r0, #2
 800234a:	d9ef      	bls.n	800232c <HAL_RCC_OscConfig+0x118>
 800234c:	e7a7      	b.n	800229e <HAL_RCC_OscConfig+0x8a>
 800234e:	601a      	str	r2, [r3, #0]
 8002350:	f7fe fcfe 	bl	8000d50 <HAL_GetTick>
 8002354:	4d61      	ldr	r5, [pc, #388]	; (80024dc <HAL_RCC_OscConfig+0x2c8>)
 8002356:	4606      	mov	r6, r0
 8002358:	682b      	ldr	r3, [r5, #0]
 800235a:	0799      	lsls	r1, r3, #30
 800235c:	f57f af66 	bpl.w	800222c <HAL_RCC_OscConfig+0x18>
 8002360:	f7fe fcf6 	bl	8000d50 <HAL_GetTick>
 8002364:	1b80      	subs	r0, r0, r6
 8002366:	2802      	cmp	r0, #2
 8002368:	d9f6      	bls.n	8002358 <HAL_RCC_OscConfig+0x144>
 800236a:	e798      	b.n	800229e <HAL_RCC_OscConfig+0x8a>
 800236c:	6962      	ldr	r2, [r4, #20]
 800236e:	4b5d      	ldr	r3, [pc, #372]	; (80024e4 <HAL_RCC_OscConfig+0x2d0>)
 8002370:	b17a      	cbz	r2, 8002392 <HAL_RCC_OscConfig+0x17e>
 8002372:	2201      	movs	r2, #1
 8002374:	601a      	str	r2, [r3, #0]
 8002376:	f7fe fceb 	bl	8000d50 <HAL_GetTick>
 800237a:	4d58      	ldr	r5, [pc, #352]	; (80024dc <HAL_RCC_OscConfig+0x2c8>)
 800237c:	4606      	mov	r6, r0
 800237e:	6f6b      	ldr	r3, [r5, #116]	; 0x74
 8002380:	079f      	lsls	r7, r3, #30
 8002382:	f53f af57 	bmi.w	8002234 <HAL_RCC_OscConfig+0x20>
 8002386:	f7fe fce3 	bl	8000d50 <HAL_GetTick>
 800238a:	1b80      	subs	r0, r0, r6
 800238c:	2802      	cmp	r0, #2
 800238e:	d9f6      	bls.n	800237e <HAL_RCC_OscConfig+0x16a>
 8002390:	e785      	b.n	800229e <HAL_RCC_OscConfig+0x8a>
 8002392:	601a      	str	r2, [r3, #0]
 8002394:	f7fe fcdc 	bl	8000d50 <HAL_GetTick>
 8002398:	4d50      	ldr	r5, [pc, #320]	; (80024dc <HAL_RCC_OscConfig+0x2c8>)
 800239a:	4606      	mov	r6, r0
 800239c:	6f6b      	ldr	r3, [r5, #116]	; 0x74
 800239e:	0798      	lsls	r0, r3, #30
 80023a0:	f57f af48 	bpl.w	8002234 <HAL_RCC_OscConfig+0x20>
 80023a4:	f7fe fcd4 	bl	8000d50 <HAL_GetTick>
 80023a8:	1b80      	subs	r0, r0, r6
 80023aa:	2802      	cmp	r0, #2
 80023ac:	d9f6      	bls.n	800239c <HAL_RCC_OscConfig+0x188>
 80023ae:	e776      	b.n	800229e <HAL_RCC_OscConfig+0x8a>
 80023b0:	4b4a      	ldr	r3, [pc, #296]	; (80024dc <HAL_RCC_OscConfig+0x2c8>)
 80023b2:	6c1a      	ldr	r2, [r3, #64]	; 0x40
 80023b4:	f012 5280 	ands.w	r2, r2, #268435456	; 0x10000000
 80023b8:	d128      	bne.n	800240c <HAL_RCC_OscConfig+0x1f8>
 80023ba:	9201      	str	r2, [sp, #4]
 80023bc:	6c1a      	ldr	r2, [r3, #64]	; 0x40
 80023be:	f042 5280 	orr.w	r2, r2, #268435456	; 0x10000000
 80023c2:	641a      	str	r2, [r3, #64]	; 0x40
 80023c4:	6c1b      	ldr	r3, [r3, #64]	; 0x40
 80023c6:	f003 5380 	and.w	r3, r3, #268435456	; 0x10000000
 80023ca:	9301      	str	r3, [sp, #4]
 80023cc:	9b01      	ldr	r3, [sp, #4]
 80023ce:	2601      	movs	r6, #1
 80023d0:	4d45      	ldr	r5, [pc, #276]	; (80024e8 <HAL_RCC_OscConfig+0x2d4>)
 80023d2:	682b      	ldr	r3, [r5, #0]
 80023d4:	05d9      	lsls	r1, r3, #23
 80023d6:	d51b      	bpl.n	8002410 <HAL_RCC_OscConfig+0x1fc>
 80023d8:	68a3      	ldr	r3, [r4, #8]
 80023da:	4d40      	ldr	r5, [pc, #256]	; (80024dc <HAL_RCC_OscConfig+0x2c8>)
 80023dc:	2b01      	cmp	r3, #1
 80023de:	d127      	bne.n	8002430 <HAL_RCC_OscConfig+0x21c>
 80023e0:	6f2b      	ldr	r3, [r5, #112]	; 0x70
 80023e2:	f043 0301 	orr.w	r3, r3, #1
 80023e6:	672b      	str	r3, [r5, #112]	; 0x70
 80023e8:	f7fe fcb2 	bl	8000d50 <HAL_GetTick>
 80023ec:	4d3b      	ldr	r5, [pc, #236]	; (80024dc <HAL_RCC_OscConfig+0x2c8>)
 80023ee:	4607      	mov	r7, r0
 80023f0:	f241 3888 	movw	r8, #5000	; 0x1388
 80023f4:	6f2b      	ldr	r3, [r5, #112]	; 0x70
 80023f6:	079b      	lsls	r3, r3, #30
 80023f8:	d539      	bpl.n	800246e <HAL_RCC_OscConfig+0x25a>
 80023fa:	2e00      	cmp	r6, #0
 80023fc:	f43f af1e 	beq.w	800223c <HAL_RCC_OscConfig+0x28>
 8002400:	4a36      	ldr	r2, [pc, #216]	; (80024dc <HAL_RCC_OscConfig+0x2c8>)
 8002402:	6c13      	ldr	r3, [r2, #64]	; 0x40
 8002404:	f023 5380 	bic.w	r3, r3, #268435456	; 0x10000000
 8002408:	6413      	str	r3, [r2, #64]	; 0x40
 800240a:	e717      	b.n	800223c <HAL_RCC_OscConfig+0x28>
 800240c:	2600      	movs	r6, #0
 800240e:	e7df      	b.n	80023d0 <HAL_RCC_OscConfig+0x1bc>
 8002410:	682b      	ldr	r3, [r5, #0]
 8002412:	f443 7380 	orr.w	r3, r3, #256	; 0x100
 8002416:	602b      	str	r3, [r5, #0]
 8002418:	f7fe fc9a 	bl	8000d50 <HAL_GetTick>
 800241c:	4607      	mov	r7, r0
 800241e:	682b      	ldr	r3, [r5, #0]
 8002420:	05da      	lsls	r2, r3, #23
 8002422:	d4d9      	bmi.n	80023d8 <HAL_RCC_OscConfig+0x1c4>
 8002424:	f7fe fc94 	bl	8000d50 <HAL_GetTick>
 8002428:	1bc0      	subs	r0, r0, r7
 800242a:	2802      	cmp	r0, #2
 800242c:	d9f7      	bls.n	800241e <HAL_RCC_OscConfig+0x20a>
 800242e:	e736      	b.n	800229e <HAL_RCC_OscConfig+0x8a>
 8002430:	2b05      	cmp	r3, #5
 8002432:	d104      	bne.n	800243e <HAL_RCC_OscConfig+0x22a>
 8002434:	6f2b      	ldr	r3, [r5, #112]	; 0x70
 8002436:	f043 0304 	orr.w	r3, r3, #4
 800243a:	672b      	str	r3, [r5, #112]	; 0x70
 800243c:	e7d0      	b.n	80023e0 <HAL_RCC_OscConfig+0x1cc>
 800243e:	6f2a      	ldr	r2, [r5, #112]	; 0x70
 8002440:	f022 0201 	bic.w	r2, r2, #1
 8002444:	672a      	str	r2, [r5, #112]	; 0x70
 8002446:	6f2a      	ldr	r2, [r5, #112]	; 0x70
 8002448:	f022 0204 	bic.w	r2, r2, #4
 800244c:	672a      	str	r2, [r5, #112]	; 0x70
 800244e:	2b00      	cmp	r3, #0
 8002450:	d1ca      	bne.n	80023e8 <HAL_RCC_OscConfig+0x1d4>
 8002452:	f7fe fc7d 	bl	8000d50 <HAL_GetTick>
 8002456:	f241 3888 	movw	r8, #5000	; 0x1388
 800245a:	4607      	mov	r7, r0
 800245c:	6f2b      	ldr	r3, [r5, #112]	; 0x70
 800245e:	0798      	lsls	r0, r3, #30
 8002460:	d5cb      	bpl.n	80023fa <HAL_RCC_OscConfig+0x1e6>
 8002462:	f7fe fc75 	bl	8000d50 <HAL_GetTick>
 8002466:	1bc0      	subs	r0, r0, r7
 8002468:	4540      	cmp	r0, r8
 800246a:	d9f7      	bls.n	800245c <HAL_RCC_OscConfig+0x248>
 800246c:	e717      	b.n	800229e <HAL_RCC_OscConfig+0x8a>
 800246e:	f7fe fc6f 	bl	8000d50 <HAL_GetTick>
 8002472:	1bc0      	subs	r0, r0, r7
 8002474:	4540      	cmp	r0, r8
 8002476:	d9bd      	bls.n	80023f4 <HAL_RCC_OscConfig+0x1e0>
 8002478:	e711      	b.n	800229e <HAL_RCC_OscConfig+0x8a>
 800247a:	4d18      	ldr	r5, [pc, #96]	; (80024dc <HAL_RCC_OscConfig+0x2c8>)
 800247c:	68ab      	ldr	r3, [r5, #8]
 800247e:	f003 030c 	and.w	r3, r3, #12
 8002482:	2b08      	cmp	r3, #8
 8002484:	d047      	beq.n	8002516 <HAL_RCC_OscConfig+0x302>
 8002486:	4e19      	ldr	r6, [pc, #100]	; (80024ec <HAL_RCC_OscConfig+0x2d8>)
 8002488:	2300      	movs	r3, #0
 800248a:	2802      	cmp	r0, #2
 800248c:	6033      	str	r3, [r6, #0]
 800248e:	d135      	bne.n	80024fc <HAL_RCC_OscConfig+0x2e8>
 8002490:	f7fe fc5e 	bl	8000d50 <HAL_GetTick>
 8002494:	4607      	mov	r7, r0
 8002496:	682b      	ldr	r3, [r5, #0]
 8002498:	0199      	lsls	r1, r3, #6
 800249a:	d429      	bmi.n	80024f0 <HAL_RCC_OscConfig+0x2dc>
 800249c:	6a22      	ldr	r2, [r4, #32]
 800249e:	69e3      	ldr	r3, [r4, #28]
 80024a0:	4313      	orrs	r3, r2
 80024a2:	6a62      	ldr	r2, [r4, #36]	; 0x24
 80024a4:	ea43 1382 	orr.w	r3, r3, r2, lsl #6
 80024a8:	6ae2      	ldr	r2, [r4, #44]	; 0x2c
 80024aa:	ea43 6302 	orr.w	r3, r3, r2, lsl #24
 80024ae:	6aa2      	ldr	r2, [r4, #40]	; 0x28
 80024b0:	4c0a      	ldr	r4, [pc, #40]	; (80024dc <HAL_RCC_OscConfig+0x2c8>)
 80024b2:	0852      	lsrs	r2, r2, #1
 80024b4:	3a01      	subs	r2, #1
 80024b6:	ea43 4302 	orr.w	r3, r3, r2, lsl #16
 80024ba:	606b      	str	r3, [r5, #4]
 80024bc:	2301      	movs	r3, #1
 80024be:	6033      	str	r3, [r6, #0]
 80024c0:	f7fe fc46 	bl	8000d50 <HAL_GetTick>
 80024c4:	4605      	mov	r5, r0
 80024c6:	6823      	ldr	r3, [r4, #0]
 80024c8:	019a      	lsls	r2, r3, #6
 80024ca:	f53f aebb 	bmi.w	8002244 <HAL_RCC_OscConfig+0x30>
 80024ce:	f7fe fc3f 	bl	8000d50 <HAL_GetTick>
 80024d2:	1b40      	subs	r0, r0, r5
 80024d4:	2802      	cmp	r0, #2
 80024d6:	d9f6      	bls.n	80024c6 <HAL_RCC_OscConfig+0x2b2>
 80024d8:	e6e1      	b.n	800229e <HAL_RCC_OscConfig+0x8a>
 80024da:	bf00      	nop
 80024dc:	40023800 	.word	0x40023800
 80024e0:	42470000 	.word	0x42470000
 80024e4:	42470e80 	.word	0x42470e80
 80024e8:	40007000 	.word	0x40007000
 80024ec:	42470060 	.word	0x42470060
 80024f0:	f7fe fc2e 	bl	8000d50 <HAL_GetTick>
 80024f4:	1bc0      	subs	r0, r0, r7
 80024f6:	2802      	cmp	r0, #2
 80024f8:	d9cd      	bls.n	8002496 <HAL_RCC_OscConfig+0x282>
 80024fa:	e6d0      	b.n	800229e <HAL_RCC_OscConfig+0x8a>
 80024fc:	f7fe fc28 	bl	8000d50 <HAL_GetTick>
 8002500:	4604      	mov	r4, r0
 8002502:	682b      	ldr	r3, [r5, #0]
 8002504:	019b      	lsls	r3, r3, #6
 8002506:	f57f ae9d 	bpl.w	8002244 <HAL_RCC_OscConfig+0x30>
 800250a:	f7fe fc21 	bl	8000d50 <HAL_GetTick>
 800250e:	1b00      	subs	r0, r0, r4
 8002510:	2802      	cmp	r0, #2
 8002512:	d9f6      	bls.n	8002502 <HAL_RCC_OscConfig+0x2ee>
 8002514:	e6c3      	b.n	800229e <HAL_RCC_OscConfig+0x8a>
 8002516:	2801      	cmp	r0, #1
 8002518:	f43f aec2 	beq.w	80022a0 <HAL_RCC_OscConfig+0x8c>
 800251c:	68a8      	ldr	r0, [r5, #8]
 800251e:	69e3      	ldr	r3, [r4, #28]
 8002520:	f400 0280 	and.w	r2, r0, #4194304	; 0x400000
 8002524:	429a      	cmp	r2, r3
 8002526:	f47f ae79 	bne.w	800221c <HAL_RCC_OscConfig+0x8>
 800252a:	6a22      	ldr	r2, [r4, #32]
 800252c:	f000 033f 	and.w	r3, r0, #63	; 0x3f
 8002530:	4293      	cmp	r3, r2
 8002532:	f47f ae73 	bne.w	800221c <HAL_RCC_OscConfig+0x8>
 8002536:	6a62      	ldr	r2, [r4, #36]	; 0x24
 8002538:	f647 73c0 	movw	r3, #32704	; 0x7fc0
 800253c:	4003      	ands	r3, r0
 800253e:	4293      	cmp	r3, r2
 8002540:	f47f ae6c 	bne.w	800221c <HAL_RCC_OscConfig+0x8>
 8002544:	6aa2      	ldr	r2, [r4, #40]	; 0x28
 8002546:	f400 3340 	and.w	r3, r0, #196608	; 0x30000
 800254a:	4293      	cmp	r3, r2
 800254c:	f47f ae66 	bne.w	800221c <HAL_RCC_OscConfig+0x8>
 8002550:	6ae3      	ldr	r3, [r4, #44]	; 0x2c
 8002552:	f000 6070 	and.w	r0, r0, #251658240	; 0xf000000
 8002556:	1ac0      	subs	r0, r0, r3
 8002558:	bf18      	it	ne
 800255a:	2001      	movne	r0, #1
 800255c:	e6a0      	b.n	80022a0 <HAL_RCC_OscConfig+0x8c>
 800255e:	bf00      	nop

08002560 <HAL_RCC_GetSysClockFreq>:
 8002560:	4913      	ldr	r1, [pc, #76]	; (80025b0 <HAL_RCC_GetSysClockFreq+0x50>)
 8002562:	b508      	push	{r3, lr}
 8002564:	688b      	ldr	r3, [r1, #8]
 8002566:	f003 030c 	and.w	r3, r3, #12
 800256a:	2b04      	cmp	r3, #4
 800256c:	d003      	beq.n	8002576 <HAL_RCC_GetSysClockFreq+0x16>
 800256e:	2b08      	cmp	r3, #8
 8002570:	d003      	beq.n	800257a <HAL_RCC_GetSysClockFreq+0x1a>
 8002572:	4810      	ldr	r0, [pc, #64]	; (80025b4 <HAL_RCC_GetSysClockFreq+0x54>)
 8002574:	bd08      	pop	{r3, pc}
 8002576:	4810      	ldr	r0, [pc, #64]	; (80025b8 <HAL_RCC_GetSysClockFreq+0x58>)
 8002578:	bd08      	pop	{r3, pc}
 800257a:	684a      	ldr	r2, [r1, #4]
 800257c:	684b      	ldr	r3, [r1, #4]
 800257e:	6849      	ldr	r1, [r1, #4]
 8002580:	f413 0380 	ands.w	r3, r3, #4194304	; 0x400000
 8002584:	bf14      	ite	ne
 8002586:	480c      	ldrne	r0, [pc, #48]	; (80025b8 <HAL_RCC_GetSysClockFreq+0x58>)
 8002588:	480a      	ldreq	r0, [pc, #40]	; (80025b4 <HAL_RCC_GetSysClockFreq+0x54>)
 800258a:	f3c1 1188 	ubfx	r1, r1, #6, #9
 800258e:	bf18      	it	ne
 8002590:	2300      	movne	r3, #0
 8002592:	f002 023f 	and.w	r2, r2, #63	; 0x3f
 8002596:	fba1 0100 	umull	r0, r1, r1, r0
 800259a:	f7fe fa07 	bl	80009ac <__aeabi_uldivmod>
 800259e:	4b04      	ldr	r3, [pc, #16]	; (80025b0 <HAL_RCC_GetSysClockFreq+0x50>)
 80025a0:	685b      	ldr	r3, [r3, #4]
 80025a2:	f3c3 4301 	ubfx	r3, r3, #16, #2
 80025a6:	3301      	adds	r3, #1
 80025a8:	005b      	lsls	r3, r3, #1
 80025aa:	fbb0 f0f3 	udiv	r0, r0, r3
 80025ae:	bd08      	pop	{r3, pc}
 80025b0:	40023800 	.word	0x40023800
 80025b4:	00f42400 	.word	0x00f42400
 80025b8:	007a1200 	.word	0x007a1200

080025bc <HAL_RCC_ClockConfig>:
 80025bc:	e92d 41f0 	stmdb	sp!, {r4, r5, r6, r7, r8, lr}
 80025c0:	460d      	mov	r5, r1
 80025c2:	4604      	mov	r4, r0
 80025c4:	b910      	cbnz	r0, 80025cc <HAL_RCC_ClockConfig+0x10>
 80025c6:	2001      	movs	r0, #1
 80025c8:	e8bd 81f0 	ldmia.w	sp!, {r4, r5, r6, r7, r8, pc}
 80025cc:	4b44      	ldr	r3, [pc, #272]	; (80026e0 <HAL_RCC_ClockConfig+0x124>)
 80025ce:	681a      	ldr	r2, [r3, #0]
 80025d0:	f002 020f 	and.w	r2, r2, #15
 80025d4:	428a      	cmp	r2, r1
 80025d6:	d329      	bcc.n	800262c <HAL_RCC_ClockConfig+0x70>
 80025d8:	6821      	ldr	r1, [r4, #0]
 80025da:	078f      	lsls	r7, r1, #30
 80025dc:	d42e      	bmi.n	800263c <HAL_RCC_ClockConfig+0x80>
 80025de:	07c8      	lsls	r0, r1, #31
 80025e0:	d441      	bmi.n	8002666 <HAL_RCC_ClockConfig+0xaa>
 80025e2:	4b3f      	ldr	r3, [pc, #252]	; (80026e0 <HAL_RCC_ClockConfig+0x124>)
 80025e4:	681a      	ldr	r2, [r3, #0]
 80025e6:	f002 020f 	and.w	r2, r2, #15
 80025ea:	4295      	cmp	r5, r2
 80025ec:	d367      	bcc.n	80026be <HAL_RCC_ClockConfig+0x102>
 80025ee:	6822      	ldr	r2, [r4, #0]
 80025f0:	0751      	lsls	r1, r2, #29
 80025f2:	d46d      	bmi.n	80026d0 <HAL_RCC_ClockConfig+0x114>
 80025f4:	0713      	lsls	r3, r2, #28
 80025f6:	d507      	bpl.n	8002608 <HAL_RCC_ClockConfig+0x4c>
 80025f8:	4a3a      	ldr	r2, [pc, #232]	; (80026e4 <HAL_RCC_ClockConfig+0x128>)
 80025fa:	6921      	ldr	r1, [r4, #16]
 80025fc:	6893      	ldr	r3, [r2, #8]
 80025fe:	f423 4360 	bic.w	r3, r3, #57344	; 0xe000
 8002602:	ea43 03c1 	orr.w	r3, r3, r1, lsl #3
 8002606:	6093      	str	r3, [r2, #8]
 8002608:	f7ff ffaa 	bl	8002560 <HAL_RCC_GetSysClockFreq>
 800260c:	4b35      	ldr	r3, [pc, #212]	; (80026e4 <HAL_RCC_ClockConfig+0x128>)
 800260e:	4a36      	ldr	r2, [pc, #216]	; (80026e8 <HAL_RCC_ClockConfig+0x12c>)
 8002610:	689b      	ldr	r3, [r3, #8]
 8002612:	f3c3 1303 	ubfx	r3, r3, #4, #4
 8002616:	5cd3      	ldrb	r3, [r2, r3]
 8002618:	40d8      	lsrs	r0, r3
 800261a:	4b34      	ldr	r3, [pc, #208]	; (80026ec <HAL_RCC_ClockConfig+0x130>)
 800261c:	6018      	str	r0, [r3, #0]
 800261e:	4b34      	ldr	r3, [pc, #208]	; (80026f0 <HAL_RCC_ClockConfig+0x134>)
 8002620:	6818      	ldr	r0, [r3, #0]
 8002622:	f7fe fb4b 	bl	8000cbc <HAL_InitTick>
 8002626:	2000      	movs	r0, #0
 8002628:	e8bd 81f0 	ldmia.w	sp!, {r4, r5, r6, r7, r8, pc}
 800262c:	b2ca      	uxtb	r2, r1
 800262e:	701a      	strb	r2, [r3, #0]
 8002630:	681b      	ldr	r3, [r3, #0]
 8002632:	f003 030f 	and.w	r3, r3, #15
 8002636:	4299      	cmp	r1, r3
 8002638:	d1c5      	bne.n	80025c6 <HAL_RCC_ClockConfig+0xa>
 800263a:	e7cd      	b.n	80025d8 <HAL_RCC_ClockConfig+0x1c>
 800263c:	4b29      	ldr	r3, [pc, #164]	; (80026e4 <HAL_RCC_ClockConfig+0x128>)
 800263e:	f011 0f04 	tst.w	r1, #4
 8002642:	bf1e      	ittt	ne
 8002644:	689a      	ldrne	r2, [r3, #8]
 8002646:	f442 52e0 	orrne.w	r2, r2, #7168	; 0x1c00
 800264a:	609a      	strne	r2, [r3, #8]
 800264c:	070e      	lsls	r6, r1, #28
 800264e:	bf42      	ittt	mi
 8002650:	689a      	ldrmi	r2, [r3, #8]
 8002652:	f442 4260 	orrmi.w	r2, r2, #57344	; 0xe000
 8002656:	609a      	strmi	r2, [r3, #8]
 8002658:	689a      	ldr	r2, [r3, #8]
 800265a:	68a0      	ldr	r0, [r4, #8]
 800265c:	f022 02f0 	bic.w	r2, r2, #240	; 0xf0
 8002660:	4302      	orrs	r2, r0
 8002662:	609a      	str	r2, [r3, #8]
 8002664:	e7bb      	b.n	80025de <HAL_RCC_ClockConfig+0x22>
 8002666:	6862      	ldr	r2, [r4, #4]
 8002668:	4b1e      	ldr	r3, [pc, #120]	; (80026e4 <HAL_RCC_ClockConfig+0x128>)
 800266a:	2a01      	cmp	r2, #1
 800266c:	d11d      	bne.n	80026aa <HAL_RCC_ClockConfig+0xee>
 800266e:	681b      	ldr	r3, [r3, #0]
 8002670:	f413 3f00 	tst.w	r3, #131072	; 0x20000
 8002674:	d0a7      	beq.n	80025c6 <HAL_RCC_ClockConfig+0xa>
 8002676:	4e1b      	ldr	r6, [pc, #108]	; (80026e4 <HAL_RCC_ClockConfig+0x128>)
 8002678:	68b3      	ldr	r3, [r6, #8]
 800267a:	f023 0303 	bic.w	r3, r3, #3
 800267e:	4313      	orrs	r3, r2
 8002680:	60b3      	str	r3, [r6, #8]
 8002682:	f7fe fb65 	bl	8000d50 <HAL_GetTick>
 8002686:	f241 3888 	movw	r8, #5000	; 0x1388
 800268a:	4607      	mov	r7, r0
 800268c:	68b3      	ldr	r3, [r6, #8]
 800268e:	6862      	ldr	r2, [r4, #4]
 8002690:	f003 030c 	and.w	r3, r3, #12
 8002694:	ebb3 0f82 	cmp.w	r3, r2, lsl #2
 8002698:	d0a3      	beq.n	80025e2 <HAL_RCC_ClockConfig+0x26>
 800269a:	f7fe fb59 	bl	8000d50 <HAL_GetTick>
 800269e:	1bc0      	subs	r0, r0, r7
 80026a0:	4540      	cmp	r0, r8
 80026a2:	d9f3      	bls.n	800268c <HAL_RCC_ClockConfig+0xd0>
 80026a4:	2003      	movs	r0, #3
 80026a6:	e8bd 81f0 	ldmia.w	sp!, {r4, r5, r6, r7, r8, pc}
 80026aa:	1e91      	subs	r1, r2, #2
 80026ac:	2901      	cmp	r1, #1
 80026ae:	681b      	ldr	r3, [r3, #0]
 80026b0:	d802      	bhi.n	80026b8 <HAL_RCC_ClockConfig+0xfc>
 80026b2:	f013 7f00 	tst.w	r3, #33554432	; 0x2000000
 80026b6:	e7dd      	b.n	8002674 <HAL_RCC_ClockConfig+0xb8>
 80026b8:	f013 0f02 	tst.w	r3, #2
 80026bc:	e7da      	b.n	8002674 <HAL_RCC_ClockConfig+0xb8>
 80026be:	b2ea      	uxtb	r2, r5
 80026c0:	701a      	strb	r2, [r3, #0]
 80026c2:	681b      	ldr	r3, [r3, #0]
 80026c4:	f003 030f 	and.w	r3, r3, #15
 80026c8:	429d      	cmp	r5, r3
 80026ca:	f47f af7c 	bne.w	80025c6 <HAL_RCC_ClockConfig+0xa>
 80026ce:	e78e      	b.n	80025ee <HAL_RCC_ClockConfig+0x32>
 80026d0:	4904      	ldr	r1, [pc, #16]	; (80026e4 <HAL_RCC_ClockConfig+0x128>)
 80026d2:	68e0      	ldr	r0, [r4, #12]
 80026d4:	688b      	ldr	r3, [r1, #8]
 80026d6:	f423 53e0 	bic.w	r3, r3, #7168	; 0x1c00
 80026da:	4303      	orrs	r3, r0
 80026dc:	608b      	str	r3, [r1, #8]
 80026de:	e789      	b.n	80025f4 <HAL_RCC_ClockConfig+0x38>
 80026e0:	40023c00 	.word	0x40023c00
 80026e4:	40023800 	.word	0x40023800
 80026e8:	0800b764 	.word	0x0800b764
 80026ec:	20000008 	.word	0x20000008
 80026f0:	20000004 	.word	0x20000004

080026f4 <HAL_RCC_GetPCLK1Freq>:
 80026f4:	4b04      	ldr	r3, [pc, #16]	; (8002708 <HAL_RCC_GetPCLK1Freq+0x14>)
 80026f6:	4a05      	ldr	r2, [pc, #20]	; (800270c <HAL_RCC_GetPCLK1Freq+0x18>)
 80026f8:	689b      	ldr	r3, [r3, #8]
 80026fa:	f3c3 2382 	ubfx	r3, r3, #10, #3
 80026fe:	5cd3      	ldrb	r3, [r2, r3]
 8002700:	4a03      	ldr	r2, [pc, #12]	; (8002710 <HAL_RCC_GetPCLK1Freq+0x1c>)
 8002702:	6810      	ldr	r0, [r2, #0]
 8002704:	40d8      	lsrs	r0, r3
 8002706:	4770      	bx	lr
 8002708:	40023800 	.word	0x40023800
 800270c:	0800b774 	.word	0x0800b774
 8002710:	20000008 	.word	0x20000008

08002714 <HAL_RCC_GetPCLK2Freq>:
 8002714:	4b04      	ldr	r3, [pc, #16]	; (8002728 <HAL_RCC_GetPCLK2Freq+0x14>)
 8002716:	4a05      	ldr	r2, [pc, #20]	; (800272c <HAL_RCC_GetPCLK2Freq+0x18>)
 8002718:	689b      	ldr	r3, [r3, #8]
 800271a:	f3c3 3342 	ubfx	r3, r3, #13, #3
 800271e:	5cd3      	ldrb	r3, [r2, r3]
 8002720:	4a03      	ldr	r2, [pc, #12]	; (8002730 <HAL_RCC_GetPCLK2Freq+0x1c>)
 8002722:	6810      	ldr	r0, [r2, #0]
 8002724:	40d8      	lsrs	r0, r3
 8002726:	4770      	bx	lr
 8002728:	40023800 	.word	0x40023800
 800272c:	0800b774 	.word	0x0800b774
 8002730:	20000008 	.word	0x20000008

08002734 <HAL_RCCEx_PeriphCLKConfig>:
 8002734:	6803      	ldr	r3, [r0, #0]
 8002736:	f013 0f05 	tst.w	r3, #5
 800273a:	b5f7      	push	{r0, r1, r2, r4, r5, r6, r7, lr}
 800273c:	4605      	mov	r5, r0
 800273e:	d105      	bne.n	800274c <HAL_RCCEx_PeriphCLKConfig+0x18>
 8002740:	6828      	ldr	r0, [r5, #0]
 8002742:	f010 0002 	ands.w	r0, r0, #2
 8002746:	d128      	bne.n	800279a <HAL_RCCEx_PeriphCLKConfig+0x66>
 8002748:	b003      	add	sp, #12
 800274a:	bdf0      	pop	{r4, r5, r6, r7, pc}
 800274c:	4c41      	ldr	r4, [pc, #260]	; (8002854 <HAL_RCCEx_PeriphCLKConfig+0x120>)
 800274e:	4e42      	ldr	r6, [pc, #264]	; (8002858 <HAL_RCCEx_PeriphCLKConfig+0x124>)
 8002750:	2300      	movs	r3, #0
 8002752:	6023      	str	r3, [r4, #0]
 8002754:	f7fe fafc 	bl	8000d50 <HAL_GetTick>
 8002758:	4607      	mov	r7, r0
 800275a:	6833      	ldr	r3, [r6, #0]
 800275c:	011b      	lsls	r3, r3, #4
 800275e:	d415      	bmi.n	800278c <HAL_RCCEx_PeriphCLKConfig+0x58>
 8002760:	68ab      	ldr	r3, [r5, #8]
 8002762:	686a      	ldr	r2, [r5, #4]
 8002764:	071b      	lsls	r3, r3, #28
 8002766:	ea43 1382 	orr.w	r3, r3, r2, lsl #6
 800276a:	f8c6 3084 	str.w	r3, [r6, #132]	; 0x84
 800276e:	2301      	movs	r3, #1
 8002770:	6023      	str	r3, [r4, #0]
 8002772:	f7fe faed 	bl	8000d50 <HAL_GetTick>
 8002776:	4c38      	ldr	r4, [pc, #224]	; (8002858 <HAL_RCCEx_PeriphCLKConfig+0x124>)
 8002778:	4606      	mov	r6, r0
 800277a:	6823      	ldr	r3, [r4, #0]
 800277c:	0118      	lsls	r0, r3, #4
 800277e:	d4df      	bmi.n	8002740 <HAL_RCCEx_PeriphCLKConfig+0xc>
 8002780:	f7fe fae6 	bl	8000d50 <HAL_GetTick>
 8002784:	1b80      	subs	r0, r0, r6
 8002786:	2802      	cmp	r0, #2
 8002788:	d9f7      	bls.n	800277a <HAL_RCCEx_PeriphCLKConfig+0x46>
 800278a:	e004      	b.n	8002796 <HAL_RCCEx_PeriphCLKConfig+0x62>
 800278c:	f7fe fae0 	bl	8000d50 <HAL_GetTick>
 8002790:	1bc0      	subs	r0, r0, r7
 8002792:	2802      	cmp	r0, #2
 8002794:	d9e1      	bls.n	800275a <HAL_RCCEx_PeriphCLKConfig+0x26>
 8002796:	2003      	movs	r0, #3
 8002798:	e7d6      	b.n	8002748 <HAL_RCCEx_PeriphCLKConfig+0x14>
 800279a:	2300      	movs	r3, #0
 800279c:	9301      	str	r3, [sp, #4]
 800279e:	4b2e      	ldr	r3, [pc, #184]	; (8002858 <HAL_RCCEx_PeriphCLKConfig+0x124>)
 80027a0:	4c2e      	ldr	r4, [pc, #184]	; (800285c <HAL_RCCEx_PeriphCLKConfig+0x128>)
 80027a2:	6c1a      	ldr	r2, [r3, #64]	; 0x40
 80027a4:	f042 5280 	orr.w	r2, r2, #268435456	; 0x10000000
 80027a8:	641a      	str	r2, [r3, #64]	; 0x40
 80027aa:	6c1b      	ldr	r3, [r3, #64]	; 0x40
 80027ac:	f003 5380 	and.w	r3, r3, #268435456	; 0x10000000
 80027b0:	9301      	str	r3, [sp, #4]
 80027b2:	9b01      	ldr	r3, [sp, #4]
 80027b4:	6823      	ldr	r3, [r4, #0]
 80027b6:	f443 7380 	orr.w	r3, r3, #256	; 0x100
 80027ba:	6023      	str	r3, [r4, #0]
 80027bc:	f7fe fac8 	bl	8000d50 <HAL_GetTick>
 80027c0:	4606      	mov	r6, r0
 80027c2:	6823      	ldr	r3, [r4, #0]
 80027c4:	05d9      	lsls	r1, r3, #23
 80027c6:	d51b      	bpl.n	8002800 <HAL_RCCEx_PeriphCLKConfig+0xcc>
 80027c8:	4c23      	ldr	r4, [pc, #140]	; (8002858 <HAL_RCCEx_PeriphCLKConfig+0x124>)
 80027ca:	6f23      	ldr	r3, [r4, #112]	; 0x70
 80027cc:	f413 7340 	ands.w	r3, r3, #768	; 0x300
 80027d0:	d11c      	bne.n	800280c <HAL_RCCEx_PeriphCLKConfig+0xd8>
 80027d2:	68eb      	ldr	r3, [r5, #12]
 80027d4:	f403 7240 	and.w	r2, r3, #768	; 0x300
 80027d8:	f5b2 7f40 	cmp.w	r2, #768	; 0x300
 80027dc:	4a1e      	ldr	r2, [pc, #120]	; (8002858 <HAL_RCCEx_PeriphCLKConfig+0x124>)
 80027de:	d134      	bne.n	800284a <HAL_RCCEx_PeriphCLKConfig+0x116>
 80027e0:	6891      	ldr	r1, [r2, #8]
 80027e2:	f023 4070 	bic.w	r0, r3, #4026531840	; 0xf0000000
 80027e6:	f421 11f8 	bic.w	r1, r1, #2031616	; 0x1f0000
 80027ea:	f420 7040 	bic.w	r0, r0, #768	; 0x300
 80027ee:	4301      	orrs	r1, r0
 80027f0:	6091      	str	r1, [r2, #8]
 80027f2:	6f11      	ldr	r1, [r2, #112]	; 0x70
 80027f4:	f3c3 030b 	ubfx	r3, r3, #0, #12
 80027f8:	430b      	orrs	r3, r1
 80027fa:	6713      	str	r3, [r2, #112]	; 0x70
 80027fc:	2000      	movs	r0, #0
 80027fe:	e7a3      	b.n	8002748 <HAL_RCCEx_PeriphCLKConfig+0x14>
 8002800:	f7fe faa6 	bl	8000d50 <HAL_GetTick>
 8002804:	1b80      	subs	r0, r0, r6
 8002806:	2802      	cmp	r0, #2
 8002808:	d9db      	bls.n	80027c2 <HAL_RCCEx_PeriphCLKConfig+0x8e>
 800280a:	e7c4      	b.n	8002796 <HAL_RCCEx_PeriphCLKConfig+0x62>
 800280c:	68ea      	ldr	r2, [r5, #12]
 800280e:	f402 7240 	and.w	r2, r2, #768	; 0x300
 8002812:	4293      	cmp	r3, r2
 8002814:	d0dd      	beq.n	80027d2 <HAL_RCCEx_PeriphCLKConfig+0x9e>
 8002816:	6f23      	ldr	r3, [r4, #112]	; 0x70
 8002818:	4a11      	ldr	r2, [pc, #68]	; (8002860 <HAL_RCCEx_PeriphCLKConfig+0x12c>)
 800281a:	2101      	movs	r1, #1
 800281c:	6011      	str	r1, [r2, #0]
 800281e:	f423 7340 	bic.w	r3, r3, #768	; 0x300
 8002822:	2100      	movs	r1, #0
 8002824:	6011      	str	r1, [r2, #0]
 8002826:	6723      	str	r3, [r4, #112]	; 0x70
 8002828:	6f23      	ldr	r3, [r4, #112]	; 0x70
 800282a:	07da      	lsls	r2, r3, #31
 800282c:	d5d1      	bpl.n	80027d2 <HAL_RCCEx_PeriphCLKConfig+0x9e>
 800282e:	f7fe fa8f 	bl	8000d50 <HAL_GetTick>
 8002832:	f241 3788 	movw	r7, #5000	; 0x1388
 8002836:	4606      	mov	r6, r0
 8002838:	6f23      	ldr	r3, [r4, #112]	; 0x70
 800283a:	079b      	lsls	r3, r3, #30
 800283c:	d4c9      	bmi.n	80027d2 <HAL_RCCEx_PeriphCLKConfig+0x9e>
 800283e:	f7fe fa87 	bl	8000d50 <HAL_GetTick>
 8002842:	1b80      	subs	r0, r0, r6
 8002844:	42b8      	cmp	r0, r7
 8002846:	d9f7      	bls.n	8002838 <HAL_RCCEx_PeriphCLKConfig+0x104>
 8002848:	e7a5      	b.n	8002796 <HAL_RCCEx_PeriphCLKConfig+0x62>
 800284a:	6891      	ldr	r1, [r2, #8]
 800284c:	f421 11f8 	bic.w	r1, r1, #2031616	; 0x1f0000
 8002850:	e7ce      	b.n	80027f0 <HAL_RCCEx_PeriphCLKConfig+0xbc>
 8002852:	bf00      	nop
 8002854:	42470068 	.word	0x42470068
 8002858:	40023800 	.word	0x40023800
 800285c:	40007000 	.word	0x40007000
 8002860:	42470e40 	.word	0x42470e40

08002864 <HAL_RCCEx_GetPeriphCLKFreq>:
 8002864:	2801      	cmp	r0, #1
 8002866:	d120      	bne.n	80028aa <HAL_RCCEx_GetPeriphCLKFreq+0x46>
 8002868:	4b11      	ldr	r3, [pc, #68]	; (80028b0 <HAL_RCCEx_GetPeriphCLKFreq+0x4c>)
 800286a:	689a      	ldr	r2, [r3, #8]
 800286c:	f412 0200 	ands.w	r2, r2, #8388608	; 0x800000
 8002870:	d004      	beq.n	800287c <HAL_RCCEx_GetPeriphCLKFreq+0x18>
 8002872:	2a01      	cmp	r2, #1
 8002874:	480f      	ldr	r0, [pc, #60]	; (80028b4 <HAL_RCCEx_GetPeriphCLKFreq+0x50>)
 8002876:	bf18      	it	ne
 8002878:	2000      	movne	r0, #0
 800287a:	4770      	bx	lr
 800287c:	685a      	ldr	r2, [r3, #4]
 800287e:	490c      	ldr	r1, [pc, #48]	; (80028b0 <HAL_RCCEx_GetPeriphCLKFreq+0x4c>)
 8002880:	6858      	ldr	r0, [r3, #4]
 8002882:	0253      	lsls	r3, r2, #9
 8002884:	f8d1 2084 	ldr.w	r2, [r1, #132]	; 0x84
 8002888:	bf4c      	ite	mi
 800288a:	4b0b      	ldrmi	r3, [pc, #44]	; (80028b8 <HAL_RCCEx_GetPeriphCLKFreq+0x54>)
 800288c:	4b0b      	ldrpl	r3, [pc, #44]	; (80028bc <HAL_RCCEx_GetPeriphCLKFreq+0x58>)
 800288e:	f000 003f 	and.w	r0, r0, #63	; 0x3f
 8002892:	fbb3 f3f0 	udiv	r3, r3, r0
 8002896:	f8d1 0084 	ldr.w	r0, [r1, #132]	; 0x84
 800289a:	f3c2 1288 	ubfx	r2, r2, #6, #9
 800289e:	4353      	muls	r3, r2
 80028a0:	f3c0 7002 	ubfx	r0, r0, #28, #3
 80028a4:	fbb3 f0f0 	udiv	r0, r3, r0
 80028a8:	4770      	bx	lr
 80028aa:	2000      	movs	r0, #0
 80028ac:	4770      	bx	lr
 80028ae:	bf00      	nop
 80028b0:	40023800 	.word	0x40023800
 80028b4:	00bb8000 	.word	0x00bb8000
 80028b8:	007a1200 	.word	0x007a1200
 80028bc:	00f42400 	.word	0x00f42400

080028c0 <UART_SetConfig>:
 80028c0:	b538      	push	{r3, r4, r5, lr}
 80028c2:	6803      	ldr	r3, [r0, #0]
 80028c4:	68c1      	ldr	r1, [r0, #12]
 80028c6:	691a      	ldr	r2, [r3, #16]
 80028c8:	4604      	mov	r4, r0
 80028ca:	f422 5240 	bic.w	r2, r2, #12288	; 0x3000
 80028ce:	430a      	orrs	r2, r1
 80028d0:	611a      	str	r2, [r3, #16]
 80028d2:	6925      	ldr	r5, [r4, #16]
 80028d4:	68a2      	ldr	r2, [r4, #8]
 80028d6:	68d9      	ldr	r1, [r3, #12]
 80028d8:	69c0      	ldr	r0, [r0, #28]
 80028da:	432a      	orrs	r2, r5
 80028dc:	6965      	ldr	r5, [r4, #20]
 80028de:	f421 4116 	bic.w	r1, r1, #38400	; 0x9600
 80028e2:	432a      	orrs	r2, r5
 80028e4:	f021 010c 	bic.w	r1, r1, #12
 80028e8:	4302      	orrs	r2, r0
 80028ea:	430a      	orrs	r2, r1
 80028ec:	60da      	str	r2, [r3, #12]
 80028ee:	695a      	ldr	r2, [r3, #20]
 80028f0:	69a1      	ldr	r1, [r4, #24]
 80028f2:	f422 7240 	bic.w	r2, r2, #768	; 0x300
 80028f6:	430a      	orrs	r2, r1
 80028f8:	f5b0 4f00 	cmp.w	r0, #32768	; 0x8000
 80028fc:	615a      	str	r2, [r3, #20]
 80028fe:	4a25      	ldr	r2, [pc, #148]	; (8002994 <UART_SetConfig+0xd4>)
 8002900:	d129      	bne.n	8002956 <UART_SetConfig+0x96>
 8002902:	4293      	cmp	r3, r2
 8002904:	d003      	beq.n	800290e <UART_SetConfig+0x4e>
 8002906:	f502 6280 	add.w	r2, r2, #1024	; 0x400
 800290a:	4293      	cmp	r3, r2
 800290c:	d120      	bne.n	8002950 <UART_SetConfig+0x90>
 800290e:	f7ff ff01 	bl	8002714 <HAL_RCC_GetPCLK2Freq>
 8002912:	6862      	ldr	r2, [r4, #4]
 8002914:	6825      	ldr	r5, [r4, #0]
 8002916:	1892      	adds	r2, r2, r2
 8002918:	f04f 0300 	mov.w	r3, #0
 800291c:	f04f 0119 	mov.w	r1, #25
 8002920:	415b      	adcs	r3, r3
 8002922:	fba0 0101 	umull	r0, r1, r0, r1
 8002926:	f7fe f841 	bl	80009ac <__aeabi_uldivmod>
 800292a:	2164      	movs	r1, #100	; 0x64
 800292c:	fbb0 f4f1 	udiv	r4, r0, r1
 8002930:	fb01 0314 	mls	r3, r1, r4, r0
 8002934:	00db      	lsls	r3, r3, #3
 8002936:	3332      	adds	r3, #50	; 0x32
 8002938:	fbb3 f3f1 	udiv	r3, r3, r1
 800293c:	f003 0207 	and.w	r2, r3, #7
 8002940:	005b      	lsls	r3, r3, #1
 8002942:	eb02 1204 	add.w	r2, r2, r4, lsl #4
 8002946:	f403 73f8 	and.w	r3, r3, #496	; 0x1f0
 800294a:	4413      	add	r3, r2
 800294c:	60ab      	str	r3, [r5, #8]
 800294e:	bd38      	pop	{r3, r4, r5, pc}
 8002950:	f7ff fed0 	bl	80026f4 <HAL_RCC_GetPCLK1Freq>
 8002954:	e7dd      	b.n	8002912 <UART_SetConfig+0x52>
 8002956:	4293      	cmp	r3, r2
 8002958:	d002      	beq.n	8002960 <UART_SetConfig+0xa0>
 800295a:	4a0f      	ldr	r2, [pc, #60]	; (8002998 <UART_SetConfig+0xd8>)
 800295c:	4293      	cmp	r3, r2
 800295e:	d116      	bne.n	800298e <UART_SetConfig+0xce>
 8002960:	f7ff fed8 	bl	8002714 <HAL_RCC_GetPCLK2Freq>
 8002964:	6863      	ldr	r3, [r4, #4]
 8002966:	6825      	ldr	r5, [r4, #0]
 8002968:	2119      	movs	r1, #25
 800296a:	009a      	lsls	r2, r3, #2
 800296c:	fba0 0101 	umull	r0, r1, r0, r1
 8002970:	0f9b      	lsrs	r3, r3, #30
 8002972:	f7fe f81b 	bl	80009ac <__aeabi_uldivmod>
 8002976:	2264      	movs	r2, #100	; 0x64
 8002978:	fbb0 f1f2 	udiv	r1, r0, r2
 800297c:	fb02 0311 	mls	r3, r2, r1, r0
 8002980:	011b      	lsls	r3, r3, #4
 8002982:	3332      	adds	r3, #50	; 0x32
 8002984:	fbb3 f3f2 	udiv	r3, r3, r2
 8002988:	eb03 1301 	add.w	r3, r3, r1, lsl #4
 800298c:	e7de      	b.n	800294c <UART_SetConfig+0x8c>
 800298e:	f7ff feb1 	bl	80026f4 <HAL_RCC_GetPCLK1Freq>
 8002992:	e7e7      	b.n	8002964 <UART_SetConfig+0xa4>
 8002994:	40011000 	.word	0x40011000
 8002998:	40011400 	.word	0x40011400

0800299c <UART_WaitOnFlagUntilTimeout.constprop.3>:
 800299c:	b5f8      	push	{r3, r4, r5, r6, r7, lr}
 800299e:	4604      	mov	r4, r0
 80029a0:	460e      	mov	r6, r1
 80029a2:	4617      	mov	r7, r2
 80029a4:	461d      	mov	r5, r3
 80029a6:	6821      	ldr	r1, [r4, #0]
 80029a8:	680b      	ldr	r3, [r1, #0]
 80029aa:	ea36 0303 	bics.w	r3, r6, r3
 80029ae:	d101      	bne.n	80029b4 <UART_WaitOnFlagUntilTimeout.constprop.3+0x18>
 80029b0:	2000      	movs	r0, #0
 80029b2:	bdf8      	pop	{r3, r4, r5, r6, r7, pc}
 80029b4:	1c6b      	adds	r3, r5, #1
 80029b6:	d0f7      	beq.n	80029a8 <UART_WaitOnFlagUntilTimeout.constprop.3+0xc>
 80029b8:	b995      	cbnz	r5, 80029e0 <UART_WaitOnFlagUntilTimeout.constprop.3+0x44>
 80029ba:	6823      	ldr	r3, [r4, #0]
 80029bc:	68da      	ldr	r2, [r3, #12]
 80029be:	f422 72d0 	bic.w	r2, r2, #416	; 0x1a0
 80029c2:	60da      	str	r2, [r3, #12]
 80029c4:	695a      	ldr	r2, [r3, #20]
 80029c6:	f022 0201 	bic.w	r2, r2, #1
 80029ca:	615a      	str	r2, [r3, #20]
 80029cc:	2320      	movs	r3, #32
 80029ce:	f884 3039 	strb.w	r3, [r4, #57]	; 0x39
 80029d2:	f884 303a 	strb.w	r3, [r4, #58]	; 0x3a
 80029d6:	2300      	movs	r3, #0
 80029d8:	f884 3038 	strb.w	r3, [r4, #56]	; 0x38
 80029dc:	2003      	movs	r0, #3
 80029de:	bdf8      	pop	{r3, r4, r5, r6, r7, pc}
 80029e0:	f7fe f9b6 	bl	8000d50 <HAL_GetTick>
 80029e4:	1bc0      	subs	r0, r0, r7
 80029e6:	4285      	cmp	r5, r0
 80029e8:	d2dd      	bcs.n	80029a6 <UART_WaitOnFlagUntilTimeout.constprop.3+0xa>
 80029ea:	e7e6      	b.n	80029ba <UART_WaitOnFlagUntilTimeout.constprop.3+0x1e>

080029ec <HAL_UART_Init>:
 80029ec:	b510      	push	{r4, lr}
 80029ee:	4604      	mov	r4, r0
 80029f0:	b340      	cbz	r0, 8002a44 <HAL_UART_Init+0x58>
 80029f2:	f890 3039 	ldrb.w	r3, [r0, #57]	; 0x39
 80029f6:	f003 02ff 	and.w	r2, r3, #255	; 0xff
 80029fa:	b91b      	cbnz	r3, 8002a04 <HAL_UART_Init+0x18>
 80029fc:	f880 2038 	strb.w	r2, [r0, #56]	; 0x38
 8002a00:	f000 fd34 	bl	800346c <HAL_UART_MspInit>
 8002a04:	6822      	ldr	r2, [r4, #0]
 8002a06:	2324      	movs	r3, #36	; 0x24
 8002a08:	f884 3039 	strb.w	r3, [r4, #57]	; 0x39
 8002a0c:	68d3      	ldr	r3, [r2, #12]
 8002a0e:	f423 5300 	bic.w	r3, r3, #8192	; 0x2000
 8002a12:	60d3      	str	r3, [r2, #12]
 8002a14:	4620      	mov	r0, r4
 8002a16:	f7ff ff53 	bl	80028c0 <UART_SetConfig>
 8002a1a:	6823      	ldr	r3, [r4, #0]
 8002a1c:	691a      	ldr	r2, [r3, #16]
 8002a1e:	f422 4290 	bic.w	r2, r2, #18432	; 0x4800
 8002a22:	611a      	str	r2, [r3, #16]
 8002a24:	695a      	ldr	r2, [r3, #20]
 8002a26:	f022 022a 	bic.w	r2, r2, #42	; 0x2a
 8002a2a:	615a      	str	r2, [r3, #20]
 8002a2c:	68da      	ldr	r2, [r3, #12]
 8002a2e:	f442 5200 	orr.w	r2, r2, #8192	; 0x2000
 8002a32:	60da      	str	r2, [r3, #12]
 8002a34:	2000      	movs	r0, #0
 8002a36:	2320      	movs	r3, #32
 8002a38:	63e0      	str	r0, [r4, #60]	; 0x3c
 8002a3a:	f884 3039 	strb.w	r3, [r4, #57]	; 0x39
 8002a3e:	f884 303a 	strb.w	r3, [r4, #58]	; 0x3a
 8002a42:	bd10      	pop	{r4, pc}
 8002a44:	2001      	movs	r0, #1
 8002a46:	bd10      	pop	{r4, pc}

08002a48 <HAL_UART_Receive>:
 8002a48:	e92d 43f8 	stmdb	sp!, {r3, r4, r5, r6, r7, r8, r9, lr}
 8002a4c:	461f      	mov	r7, r3
 8002a4e:	f890 303a 	ldrb.w	r3, [r0, #58]	; 0x3a
 8002a52:	2b20      	cmp	r3, #32
 8002a54:	4604      	mov	r4, r0
 8002a56:	460d      	mov	r5, r1
 8002a58:	4690      	mov	r8, r2
 8002a5a:	d154      	bne.n	8002b06 <HAL_UART_Receive+0xbe>
 8002a5c:	2900      	cmp	r1, #0
 8002a5e:	d04f      	beq.n	8002b00 <HAL_UART_Receive+0xb8>
 8002a60:	2a00      	cmp	r2, #0
 8002a62:	d04d      	beq.n	8002b00 <HAL_UART_Receive+0xb8>
 8002a64:	f890 3038 	ldrb.w	r3, [r0, #56]	; 0x38
 8002a68:	2b01      	cmp	r3, #1
 8002a6a:	d04c      	beq.n	8002b06 <HAL_UART_Receive+0xbe>
 8002a6c:	2301      	movs	r3, #1
 8002a6e:	f880 3038 	strb.w	r3, [r0, #56]	; 0x38
 8002a72:	f04f 0900 	mov.w	r9, #0
 8002a76:	2322      	movs	r3, #34	; 0x22
 8002a78:	f8c0 903c 	str.w	r9, [r0, #60]	; 0x3c
 8002a7c:	f880 303a 	strb.w	r3, [r0, #58]	; 0x3a
 8002a80:	f7fe f966 	bl	8000d50 <HAL_GetTick>
 8002a84:	f8a4 802c 	strh.w	r8, [r4, #44]	; 0x2c
 8002a88:	4606      	mov	r6, r0
 8002a8a:	f8a4 802e 	strh.w	r8, [r4, #46]	; 0x2e
 8002a8e:	f884 9038 	strb.w	r9, [r4, #56]	; 0x38
 8002a92:	8de0      	ldrh	r0, [r4, #46]	; 0x2e
 8002a94:	b280      	uxth	r0, r0
 8002a96:	b920      	cbnz	r0, 8002aa2 <HAL_UART_Receive+0x5a>
 8002a98:	2320      	movs	r3, #32
 8002a9a:	f884 303a 	strb.w	r3, [r4, #58]	; 0x3a
 8002a9e:	e8bd 83f8 	ldmia.w	sp!, {r3, r4, r5, r6, r7, r8, r9, pc}
 8002aa2:	8de3      	ldrh	r3, [r4, #46]	; 0x2e
 8002aa4:	3b01      	subs	r3, #1
 8002aa6:	b29b      	uxth	r3, r3
 8002aa8:	85e3      	strh	r3, [r4, #46]	; 0x2e
 8002aaa:	68a3      	ldr	r3, [r4, #8]
 8002aac:	f5b3 5f80 	cmp.w	r3, #4096	; 0x1000
 8002ab0:	4632      	mov	r2, r6
 8002ab2:	463b      	mov	r3, r7
 8002ab4:	f04f 0120 	mov.w	r1, #32
 8002ab8:	4620      	mov	r0, r4
 8002aba:	d112      	bne.n	8002ae2 <HAL_UART_Receive+0x9a>
 8002abc:	f7ff ff6e 	bl	800299c <UART_WaitOnFlagUntilTimeout.constprop.3>
 8002ac0:	b110      	cbz	r0, 8002ac8 <HAL_UART_Receive+0x80>
 8002ac2:	2003      	movs	r0, #3
 8002ac4:	e8bd 83f8 	ldmia.w	sp!, {r3, r4, r5, r6, r7, r8, r9, pc}
 8002ac8:	6823      	ldr	r3, [r4, #0]
 8002aca:	6922      	ldr	r2, [r4, #16]
 8002acc:	685b      	ldr	r3, [r3, #4]
 8002ace:	b922      	cbnz	r2, 8002ada <HAL_UART_Receive+0x92>
 8002ad0:	f3c3 0308 	ubfx	r3, r3, #0, #9
 8002ad4:	f825 3b02 	strh.w	r3, [r5], #2
 8002ad8:	e7db      	b.n	8002a92 <HAL_UART_Receive+0x4a>
 8002ada:	b2db      	uxtb	r3, r3
 8002adc:	f825 3b01 	strh.w	r3, [r5], #1
 8002ae0:	e7d7      	b.n	8002a92 <HAL_UART_Receive+0x4a>
 8002ae2:	f7ff ff5b 	bl	800299c <UART_WaitOnFlagUntilTimeout.constprop.3>
 8002ae6:	2800      	cmp	r0, #0
 8002ae8:	d1eb      	bne.n	8002ac2 <HAL_UART_Receive+0x7a>
 8002aea:	6823      	ldr	r3, [r4, #0]
 8002aec:	6921      	ldr	r1, [r4, #16]
 8002aee:	685b      	ldr	r3, [r3, #4]
 8002af0:	1c6a      	adds	r2, r5, #1
 8002af2:	b911      	cbnz	r1, 8002afa <HAL_UART_Receive+0xb2>
 8002af4:	702b      	strb	r3, [r5, #0]
 8002af6:	4615      	mov	r5, r2
 8002af8:	e7cb      	b.n	8002a92 <HAL_UART_Receive+0x4a>
 8002afa:	f003 037f 	and.w	r3, r3, #127	; 0x7f
 8002afe:	e7f9      	b.n	8002af4 <HAL_UART_Receive+0xac>
 8002b00:	2001      	movs	r0, #1
 8002b02:	e8bd 83f8 	ldmia.w	sp!, {r3, r4, r5, r6, r7, r8, r9, pc}
 8002b06:	2002      	movs	r0, #2
 8002b08:	e8bd 83f8 	ldmia.w	sp!, {r3, r4, r5, r6, r7, r8, r9, pc}

08002b0c <updateADSR>:
 8002b0c:	7803      	ldrb	r3, [r0, #0]
 8002b0e:	2b02      	cmp	r3, #2
 8002b10:	d00e      	beq.n	8002b30 <updateADSR+0x24>
 8002b12:	2b04      	cmp	r3, #4
 8002b14:	d016      	beq.n	8002b44 <updateADSR+0x38>
 8002b16:	2b01      	cmp	r3, #1
 8002b18:	d109      	bne.n	8002b2e <updateADSR+0x22>
 8002b1a:	8842      	ldrh	r2, [r0, #2]
 8002b1c:	7903      	ldrb	r3, [r0, #4]
 8002b1e:	4413      	add	r3, r2
 8002b20:	b29b      	uxth	r3, r3
 8002b22:	f5b3 4f7f 	cmp.w	r3, #65280	; 0xff00
 8002b26:	8043      	strh	r3, [r0, #2]
 8002b28:	d301      	bcc.n	8002b2e <updateADSR+0x22>
 8002b2a:	2302      	movs	r3, #2
 8002b2c:	7003      	strb	r3, [r0, #0]
 8002b2e:	4770      	bx	lr
 8002b30:	7942      	ldrb	r2, [r0, #5]
 8002b32:	8843      	ldrh	r3, [r0, #2]
 8002b34:	1a9b      	subs	r3, r3, r2
 8002b36:	8902      	ldrh	r2, [r0, #8]
 8002b38:	b29b      	uxth	r3, r3
 8002b3a:	429a      	cmp	r2, r3
 8002b3c:	8043      	strh	r3, [r0, #2]
 8002b3e:	d3f6      	bcc.n	8002b2e <updateADSR+0x22>
 8002b40:	2303      	movs	r3, #3
 8002b42:	e7f3      	b.n	8002b2c <updateADSR+0x20>
 8002b44:	7982      	ldrb	r2, [r0, #6]
 8002b46:	8843      	ldrh	r3, [r0, #2]
 8002b48:	1a9b      	subs	r3, r3, r2
 8002b4a:	b29b      	uxth	r3, r3
 8002b4c:	f5b3 7f80 	cmp.w	r3, #256	; 0x100
 8002b50:	d901      	bls.n	8002b56 <updateADSR+0x4a>
 8002b52:	8043      	strh	r3, [r0, #2]
 8002b54:	4770      	bx	lr
 8002b56:	2300      	movs	r3, #0
 8002b58:	8043      	strh	r3, [r0, #2]
 8002b5a:	e7e7      	b.n	8002b2c <updateADSR+0x20>

08002b5c <send_codec_ctrl>:
 8002b5c:	b513      	push	{r0, r1, r4, lr}
 8002b5e:	f04f 33ff 	mov.w	r3, #4294967295	; 0xffffffff
 8002b62:	9300      	str	r3, [sp, #0]
 8002b64:	4602      	mov	r2, r0
 8002b66:	460b      	mov	r3, r1
 8002b68:	4805      	ldr	r0, [pc, #20]	; (8002b80 <send_codec_ctrl+0x24>)
 8002b6a:	4c05      	ldr	r4, [pc, #20]	; (8002b80 <send_codec_ctrl+0x24>)
 8002b6c:	2194      	movs	r1, #148	; 0x94
 8002b6e:	f7fe fd85 	bl	800167c <HAL_I2C_Master_Transmit>
 8002b72:	4620      	mov	r0, r4
 8002b74:	f7fe ffca 	bl	8001b0c <HAL_I2C_GetState>
 8002b78:	2820      	cmp	r0, #32
 8002b7a:	d1fa      	bne.n	8002b72 <send_codec_ctrl+0x16>
 8002b7c:	b002      	add	sp, #8
 8002b7e:	bd10      	pop	{r4, pc}
 8002b80:	2000002c 	.word	0x2000002c

08002b84 <read_codec_register>:
 8002b84:	b510      	push	{r4, lr}
 8002b86:	b086      	sub	sp, #24
 8002b88:	aa06      	add	r2, sp, #24
 8002b8a:	f04f 34ff 	mov.w	r4, #4294967295	; 0xffffffff
 8002b8e:	f802 0d09 	strb.w	r0, [r2, #-9]!
 8002b92:	2301      	movs	r3, #1
 8002b94:	9400      	str	r4, [sp, #0]
 8002b96:	2194      	movs	r1, #148	; 0x94
 8002b98:	480a      	ldr	r0, [pc, #40]	; (8002bc4 <read_codec_register+0x40>)
 8002b9a:	f7fe fd6f 	bl	800167c <HAL_I2C_Master_Transmit>
 8002b9e:	9400      	str	r4, [sp, #0]
 8002ba0:	2301      	movs	r3, #1
 8002ba2:	f10d 0217 	add.w	r2, sp, #23
 8002ba6:	2194      	movs	r1, #148	; 0x94
 8002ba8:	4806      	ldr	r0, [pc, #24]	; (8002bc4 <read_codec_register+0x40>)
 8002baa:	4c06      	ldr	r4, [pc, #24]	; (8002bc4 <read_codec_register+0x40>)
 8002bac:	f7fe fe3a 	bl	8001824 <HAL_I2C_Master_Receive>
 8002bb0:	4620      	mov	r0, r4
 8002bb2:	f7fe ffab 	bl	8001b0c <HAL_I2C_GetState>
 8002bb6:	2820      	cmp	r0, #32
 8002bb8:	d1fa      	bne.n	8002bb0 <read_codec_register+0x2c>
 8002bba:	f89d 0017 	ldrb.w	r0, [sp, #23]
 8002bbe:	b006      	add	sp, #24
 8002bc0:	bd10      	pop	{r4, pc}
 8002bc2:	bf00      	nop
 8002bc4:	2000002c 	.word	0x2000002c

08002bc8 <codec_ctrl_init>:
 8002bc8:	b573      	push	{r0, r1, r4, r5, r6, lr}
 8002bca:	2201      	movs	r2, #1
 8002bcc:	2110      	movs	r1, #16
 8002bce:	4853      	ldr	r0, [pc, #332]	; (8002d1c <codec_ctrl_init+0x154>)
 8002bd0:	f7fe fb96 	bl	8001300 <HAL_GPIO_WritePin>
 8002bd4:	260d      	movs	r6, #13
 8002bd6:	2301      	movs	r3, #1
 8002bd8:	4668      	mov	r0, sp
 8002bda:	2102      	movs	r1, #2
 8002bdc:	2400      	movs	r4, #0
 8002bde:	f88d 3001 	strb.w	r3, [sp, #1]
 8002be2:	f88d 6000 	strb.w	r6, [sp]
 8002be6:	f7ff ffb9 	bl	8002b5c <send_codec_ctrl>
 8002bea:	2399      	movs	r3, #153	; 0x99
 8002bec:	4668      	mov	r0, sp
 8002bee:	2102      	movs	r1, #2
 8002bf0:	f88d 3001 	strb.w	r3, [sp, #1]
 8002bf4:	f88d 4000 	strb.w	r4, [sp]
 8002bf8:	f7ff ffb0 	bl	8002b5c <send_codec_ctrl>
 8002bfc:	2347      	movs	r3, #71	; 0x47
 8002bfe:	f88d 3000 	strb.w	r3, [sp]
 8002c02:	2102      	movs	r1, #2
 8002c04:	2380      	movs	r3, #128	; 0x80
 8002c06:	4668      	mov	r0, sp
 8002c08:	f88d 3001 	strb.w	r3, [sp, #1]
 8002c0c:	f7ff ffa6 	bl	8002b5c <send_codec_ctrl>
 8002c10:	2032      	movs	r0, #50	; 0x32
 8002c12:	f7ff ffb7 	bl	8002b84 <read_codec_register>
 8002c16:	f060 007f 	orn	r0, r0, #127	; 0x7f
 8002c1a:	2532      	movs	r5, #50	; 0x32
 8002c1c:	f88d 0001 	strb.w	r0, [sp, #1]
 8002c20:	2102      	movs	r1, #2
 8002c22:	4668      	mov	r0, sp
 8002c24:	f88d 5000 	strb.w	r5, [sp]
 8002c28:	f7ff ff98 	bl	8002b5c <send_codec_ctrl>
 8002c2c:	4628      	mov	r0, r5
 8002c2e:	f7ff ffa9 	bl	8002b84 <read_codec_register>
 8002c32:	f000 007f 	and.w	r0, r0, #127	; 0x7f
 8002c36:	f88d 0001 	strb.w	r0, [sp, #1]
 8002c3a:	2102      	movs	r1, #2
 8002c3c:	4668      	mov	r0, sp
 8002c3e:	f88d 5000 	strb.w	r5, [sp]
 8002c42:	f7ff ff8b 	bl	8002b5c <send_codec_ctrl>
 8002c46:	4668      	mov	r0, sp
 8002c48:	2102      	movs	r1, #2
 8002c4a:	f88d 4000 	strb.w	r4, [sp]
 8002c4e:	f88d 4001 	strb.w	r4, [sp, #1]
 8002c52:	f7ff ff83 	bl	8002b5c <send_codec_ctrl>
 8002c56:	2304      	movs	r3, #4
 8002c58:	f88d 3000 	strb.w	r3, [sp]
 8002c5c:	4668      	mov	r0, sp
 8002c5e:	23af      	movs	r3, #175	; 0xaf
 8002c60:	2102      	movs	r1, #2
 8002c62:	f88d 3001 	strb.w	r3, [sp, #1]
 8002c66:	f7ff ff79 	bl	8002b5c <send_codec_ctrl>
 8002c6a:	2370      	movs	r3, #112	; 0x70
 8002c6c:	4668      	mov	r0, sp
 8002c6e:	2102      	movs	r1, #2
 8002c70:	f88d 3001 	strb.w	r3, [sp, #1]
 8002c74:	f88d 6000 	strb.w	r6, [sp]
 8002c78:	f7ff ff70 	bl	8002b5c <send_codec_ctrl>
 8002c7c:	2305      	movs	r3, #5
 8002c7e:	f88d 3000 	strb.w	r3, [sp]
 8002c82:	4668      	mov	r0, sp
 8002c84:	2381      	movs	r3, #129	; 0x81
 8002c86:	2102      	movs	r1, #2
 8002c88:	f88d 3001 	strb.w	r3, [sp, #1]
 8002c8c:	f7ff ff66 	bl	8002b5c <send_codec_ctrl>
 8002c90:	2306      	movs	r3, #6
 8002c92:	f88d 3000 	strb.w	r3, [sp]
 8002c96:	4668      	mov	r0, sp
 8002c98:	2307      	movs	r3, #7
 8002c9a:	2102      	movs	r1, #2
 8002c9c:	f88d 3001 	strb.w	r3, [sp, #1]
 8002ca0:	250a      	movs	r5, #10
 8002ca2:	f7ff ff5b 	bl	8002b5c <send_codec_ctrl>
 8002ca6:	4668      	mov	r0, sp
 8002ca8:	2102      	movs	r1, #2
 8002caa:	f88d 5000 	strb.w	r5, [sp]
 8002cae:	f88d 4001 	strb.w	r4, [sp, #1]
 8002cb2:	f7ff ff53 	bl	8002b5c <send_codec_ctrl>
 8002cb6:	2327      	movs	r3, #39	; 0x27
 8002cb8:	4668      	mov	r0, sp
 8002cba:	2102      	movs	r1, #2
 8002cbc:	f88d 3000 	strb.w	r3, [sp]
 8002cc0:	f88d 4001 	strb.w	r4, [sp, #1]
 8002cc4:	f7ff ff4a 	bl	8002b5c <send_codec_ctrl>
 8002cc8:	239a      	movs	r3, #154	; 0x9a
 8002cca:	4668      	mov	r0, sp
 8002ccc:	2103      	movs	r1, #3
 8002cce:	f88d 3000 	strb.w	r3, [sp]
 8002cd2:	f88d 5001 	strb.w	r5, [sp, #1]
 8002cd6:	f88d 5002 	strb.w	r5, [sp, #2]
 8002cda:	f7ff ff3f 	bl	8002b5c <send_codec_ctrl>
 8002cde:	231f      	movs	r3, #31
 8002ce0:	f88d 3000 	strb.w	r3, [sp]
 8002ce4:	4668      	mov	r0, sp
 8002ce6:	230f      	movs	r3, #15
 8002ce8:	2102      	movs	r1, #2
 8002cea:	f88d 3001 	strb.w	r3, [sp, #1]
 8002cee:	f7ff ff35 	bl	8002b5c <send_codec_ctrl>
 8002cf2:	2322      	movs	r3, #34	; 0x22
 8002cf4:	f88d 3000 	strb.w	r3, [sp]
 8002cf8:	4668      	mov	r0, sp
 8002cfa:	23c0      	movs	r3, #192	; 0xc0
 8002cfc:	2102      	movs	r1, #2
 8002cfe:	f88d 3001 	strb.w	r3, [sp, #1]
 8002d02:	f7ff ff2b 	bl	8002b5c <send_codec_ctrl>
 8002d06:	2102      	movs	r1, #2
 8002d08:	239e      	movs	r3, #158	; 0x9e
 8002d0a:	4668      	mov	r0, sp
 8002d0c:	f88d 1000 	strb.w	r1, [sp]
 8002d10:	f88d 3001 	strb.w	r3, [sp, #1]
 8002d14:	f7ff ff22 	bl	8002b5c <send_codec_ctrl>
 8002d18:	b002      	add	sp, #8
 8002d1a:	bd70      	pop	{r4, r5, r6, pc}
 8002d1c:	40020c00 	.word	0x40020c00

08002d20 <calculateVoices>:
 8002d20:	e92d 43f0 	stmdb	sp!, {r4, r5, r6, r7, r8, r9, lr}
 8002d24:	f8df 8050 	ldr.w	r8, [pc, #80]	; 8002d78 <calculateVoices+0x58>
 8002d28:	b089      	sub	sp, #36	; 0x24
 8002d2a:	2700      	movs	r7, #0
 8002d2c:	ae04      	add	r6, sp, #16
 8002d2e:	46c1      	mov	r9, r8
 8002d30:	eb08 1507 	add.w	r5, r8, r7, lsl #4
 8002d34:	2400      	movs	r4, #0
 8002d36:	2301      	movs	r3, #1
 8002d38:	9403      	str	r4, [sp, #12]
 8002d3a:	9402      	str	r4, [sp, #8]
 8002d3c:	9301      	str	r3, [sp, #4]
 8002d3e:	68eb      	ldr	r3, [r5, #12]
 8002d40:	9300      	str	r3, [sp, #0]
 8002d42:	e895 000e 	ldmia.w	r5, {r1, r2, r3}
 8002d46:	4630      	mov	r0, r6
 8002d48:	f000 fa48 	bl	80031dc <updateOsc>
 8002d4c:	e896 000f 	ldmia.w	r6, {r0, r1, r2, r3}
 8002d50:	3701      	adds	r7, #1
 8002d52:	2f08      	cmp	r7, #8
 8002d54:	e885 000f 	stmia.w	r5, {r0, r1, r2, r3}
 8002d58:	d1ea      	bne.n	8002d30 <calculateVoices+0x10>
 8002d5a:	4623      	mov	r3, r4
 8002d5c:	4620      	mov	r0, r4
 8002d5e:	eb09 0203 	add.w	r2, r9, r3
 8002d62:	3310      	adds	r3, #16
 8002d64:	8892      	ldrh	r2, [r2, #4]
 8002d66:	2b80      	cmp	r3, #128	; 0x80
 8002d68:	4410      	add	r0, r2
 8002d6a:	d1f8      	bne.n	8002d5e <calculateVoices+0x3e>
 8002d6c:	f3c0 100f 	ubfx	r0, r0, #4, #16
 8002d70:	b009      	add	sp, #36	; 0x24
 8002d72:	e8bd 83f0 	ldmia.w	sp!, {r4, r5, r6, r7, r8, r9, pc}
 8002d76:	bf00      	nop
 8002d78:	200000e0 	.word	0x200000e0

08002d7c <HAL_I2SEx_TxRxHalfCpltCallback>:
 8002d7c:	b508      	push	{r3, lr}
 8002d7e:	f7ff ffcf 	bl	8002d20 <calculateVoices>
 8002d82:	4b02      	ldr	r3, [pc, #8]	; (8002d8c <HAL_I2SEx_TxRxHalfCpltCallback+0x10>)
 8002d84:	8018      	strh	r0, [r3, #0]
 8002d86:	8058      	strh	r0, [r3, #2]
 8002d88:	bd08      	pop	{r3, pc}
 8002d8a:	bf00      	nop
 8002d8c:	20000238 	.word	0x20000238

08002d90 <HAL_I2SEx_TxRxCpltCallback>:
 8002d90:	b508      	push	{r3, lr}
 8002d92:	f7ff ffc5 	bl	8002d20 <calculateVoices>
 8002d96:	4b02      	ldr	r3, [pc, #8]	; (8002da0 <HAL_I2SEx_TxRxCpltCallback+0x10>)
 8002d98:	8098      	strh	r0, [r3, #4]
 8002d9a:	80d8      	strh	r0, [r3, #6]
 8002d9c:	bd08      	pop	{r3, pc}
 8002d9e:	bf00      	nop
 8002da0:	20000238 	.word	0x20000238

08002da4 <SystemClock_Config>:
 8002da4:	b5f0      	push	{r4, r5, r6, r7, lr}
 8002da6:	2230      	movs	r2, #48	; 0x30
 8002da8:	b099      	sub	sp, #100	; 0x64
 8002daa:	eb0d 0002 	add.w	r0, sp, r2
 8002dae:	2100      	movs	r1, #0
 8002db0:	f000 fc00 	bl	80035b4 <memset>
 8002db4:	2610      	movs	r6, #16
 8002db6:	2214      	movs	r2, #20
 8002db8:	2100      	movs	r1, #0
 8002dba:	a807      	add	r0, sp, #28
 8002dbc:	f000 fbfa 	bl	80035b4 <memset>
 8002dc0:	4632      	mov	r2, r6
 8002dc2:	2100      	movs	r1, #0
 8002dc4:	a803      	add	r0, sp, #12
 8002dc6:	f000 fbf5 	bl	80035b4 <memset>
 8002dca:	2400      	movs	r4, #0
 8002dcc:	4b1f      	ldr	r3, [pc, #124]	; (8002e4c <SystemClock_Config+0xa8>)
 8002dce:	9401      	str	r4, [sp, #4]
 8002dd0:	6c1a      	ldr	r2, [r3, #64]	; 0x40
 8002dd2:	f042 5280 	orr.w	r2, r2, #268435456	; 0x10000000
 8002dd6:	641a      	str	r2, [r3, #64]	; 0x40
 8002dd8:	6c1b      	ldr	r3, [r3, #64]	; 0x40
 8002dda:	f003 5380 	and.w	r3, r3, #268435456	; 0x10000000
 8002dde:	9301      	str	r3, [sp, #4]
 8002de0:	9b01      	ldr	r3, [sp, #4]
 8002de2:	4b1b      	ldr	r3, [pc, #108]	; (8002e50 <SystemClock_Config+0xac>)
 8002de4:	9402      	str	r4, [sp, #8]
 8002de6:	681a      	ldr	r2, [r3, #0]
 8002de8:	f442 4280 	orr.w	r2, r2, #16384	; 0x4000
 8002dec:	601a      	str	r2, [r3, #0]
 8002dee:	681b      	ldr	r3, [r3, #0]
 8002df0:	9610      	str	r6, [sp, #64]	; 0x40
 8002df2:	f403 4380 	and.w	r3, r3, #16384	; 0x4000
 8002df6:	9302      	str	r3, [sp, #8]
 8002df8:	9b02      	ldr	r3, [sp, #8]
 8002dfa:	9413      	str	r4, [sp, #76]	; 0x4c
 8002dfc:	2308      	movs	r3, #8
 8002dfe:	9314      	str	r3, [sp, #80]	; 0x50
 8002e00:	23a8      	movs	r3, #168	; 0xa8
 8002e02:	2502      	movs	r5, #2
 8002e04:	2701      	movs	r7, #1
 8002e06:	9315      	str	r3, [sp, #84]	; 0x54
 8002e08:	a80c      	add	r0, sp, #48	; 0x30
 8002e0a:	2307      	movs	r3, #7
 8002e0c:	9317      	str	r3, [sp, #92]	; 0x5c
 8002e0e:	950c      	str	r5, [sp, #48]	; 0x30
 8002e10:	970f      	str	r7, [sp, #60]	; 0x3c
 8002e12:	9512      	str	r5, [sp, #72]	; 0x48
 8002e14:	9516      	str	r5, [sp, #88]	; 0x58
 8002e16:	f7ff f9fd 	bl	8002214 <HAL_RCC_OscConfig>
 8002e1a:	230f      	movs	r3, #15
 8002e1c:	9307      	str	r3, [sp, #28]
 8002e1e:	f44f 53a0 	mov.w	r3, #5120	; 0x1400
 8002e22:	930a      	str	r3, [sp, #40]	; 0x28
 8002e24:	2105      	movs	r1, #5
 8002e26:	f44f 5380 	mov.w	r3, #4096	; 0x1000
 8002e2a:	a807      	add	r0, sp, #28
 8002e2c:	930b      	str	r3, [sp, #44]	; 0x2c
 8002e2e:	9508      	str	r5, [sp, #32]
 8002e30:	9409      	str	r4, [sp, #36]	; 0x24
 8002e32:	f7ff fbc3 	bl	80025bc <HAL_RCC_ClockConfig>
 8002e36:	2360      	movs	r3, #96	; 0x60
 8002e38:	9304      	str	r3, [sp, #16]
 8002e3a:	a803      	add	r0, sp, #12
 8002e3c:	2304      	movs	r3, #4
 8002e3e:	9703      	str	r7, [sp, #12]
 8002e40:	9305      	str	r3, [sp, #20]
 8002e42:	f7ff fc77 	bl	8002734 <HAL_RCCEx_PeriphCLKConfig>
 8002e46:	b019      	add	sp, #100	; 0x64
 8002e48:	bdf0      	pop	{r4, r5, r6, r7, pc}
 8002e4a:	bf00      	nop
 8002e4c:	40023800 	.word	0x40023800
 8002e50:	40007000 	.word	0x40007000

08002e54 <main>:
 8002e54:	e92d 43f0 	stmdb	sp!, {r4, r5, r6, r7, r8, r9, lr}
 8002e58:	b08d      	sub	sp, #52	; 0x34
 8002e5a:	2400      	movs	r4, #0
 8002e5c:	4d96      	ldr	r5, [pc, #600]	; (80030b8 <main+0x264>)
 8002e5e:	f8df 929c 	ldr.w	r9, [pc, #668]	; 80030fc <main+0x2a8>
 8002e62:	f7fd ff4f 	bl	8000d04 <HAL_Init>
 8002e66:	f7ff ff9d 	bl	8002da4 <SystemClock_Config>
 8002e6a:	2214      	movs	r2, #20
 8002e6c:	2100      	movs	r1, #0
 8002e6e:	a807      	add	r0, sp, #28
 8002e70:	f000 fba0 	bl	80035b4 <memset>
 8002e74:	9401      	str	r4, [sp, #4]
 8002e76:	6b2b      	ldr	r3, [r5, #48]	; 0x30
 8002e78:	4890      	ldr	r0, [pc, #576]	; (80030bc <main+0x268>)
 8002e7a:	f043 0310 	orr.w	r3, r3, #16
 8002e7e:	632b      	str	r3, [r5, #48]	; 0x30
 8002e80:	6b2b      	ldr	r3, [r5, #48]	; 0x30
 8002e82:	f003 0310 	and.w	r3, r3, #16
 8002e86:	9301      	str	r3, [sp, #4]
 8002e88:	9b01      	ldr	r3, [sp, #4]
 8002e8a:	9402      	str	r4, [sp, #8]
 8002e8c:	6b2b      	ldr	r3, [r5, #48]	; 0x30
 8002e8e:	f043 0304 	orr.w	r3, r3, #4
 8002e92:	632b      	str	r3, [r5, #48]	; 0x30
 8002e94:	6b2b      	ldr	r3, [r5, #48]	; 0x30
 8002e96:	f003 0304 	and.w	r3, r3, #4
 8002e9a:	9302      	str	r3, [sp, #8]
 8002e9c:	9b02      	ldr	r3, [sp, #8]
 8002e9e:	9403      	str	r4, [sp, #12]
 8002ea0:	6b2b      	ldr	r3, [r5, #48]	; 0x30
 8002ea2:	f043 0380 	orr.w	r3, r3, #128	; 0x80
 8002ea6:	632b      	str	r3, [r5, #48]	; 0x30
 8002ea8:	6b2b      	ldr	r3, [r5, #48]	; 0x30
 8002eaa:	f003 0380 	and.w	r3, r3, #128	; 0x80
 8002eae:	9303      	str	r3, [sp, #12]
 8002eb0:	9b03      	ldr	r3, [sp, #12]
 8002eb2:	9404      	str	r4, [sp, #16]
 8002eb4:	6b2b      	ldr	r3, [r5, #48]	; 0x30
 8002eb6:	f043 0301 	orr.w	r3, r3, #1
 8002eba:	632b      	str	r3, [r5, #48]	; 0x30
 8002ebc:	6b2b      	ldr	r3, [r5, #48]	; 0x30
 8002ebe:	f003 0301 	and.w	r3, r3, #1
 8002ec2:	9304      	str	r3, [sp, #16]
 8002ec4:	9b04      	ldr	r3, [sp, #16]
 8002ec6:	9405      	str	r4, [sp, #20]
 8002ec8:	6b2b      	ldr	r3, [r5, #48]	; 0x30
 8002eca:	f043 0302 	orr.w	r3, r3, #2
 8002ece:	632b      	str	r3, [r5, #48]	; 0x30
 8002ed0:	6b2b      	ldr	r3, [r5, #48]	; 0x30
 8002ed2:	f003 0302 	and.w	r3, r3, #2
 8002ed6:	9305      	str	r3, [sp, #20]
 8002ed8:	9b05      	ldr	r3, [sp, #20]
 8002eda:	9406      	str	r4, [sp, #24]
 8002edc:	6b2b      	ldr	r3, [r5, #48]	; 0x30
 8002ede:	f043 0308 	orr.w	r3, r3, #8
 8002ee2:	632b      	str	r3, [r5, #48]	; 0x30
 8002ee4:	6b2b      	ldr	r3, [r5, #48]	; 0x30
 8002ee6:	f003 0308 	and.w	r3, r3, #8
 8002eea:	9306      	str	r3, [sp, #24]
 8002eec:	4622      	mov	r2, r4
 8002eee:	2108      	movs	r1, #8
 8002ef0:	9b06      	ldr	r3, [sp, #24]
 8002ef2:	f7fe fa05 	bl	8001300 <HAL_GPIO_WritePin>
 8002ef6:	2201      	movs	r2, #1
 8002ef8:	4611      	mov	r1, r2
 8002efa:	4871      	ldr	r0, [pc, #452]	; (80030c0 <main+0x26c>)
 8002efc:	f7fe fa00 	bl	8001300 <HAL_GPIO_WritePin>
 8002f00:	4622      	mov	r2, r4
 8002f02:	f24f 0110 	movw	r1, #61456	; 0xf010
 8002f06:	486f      	ldr	r0, [pc, #444]	; (80030c4 <main+0x270>)
 8002f08:	f7fe f9fa 	bl	8001300 <HAL_GPIO_WritePin>
 8002f0c:	2701      	movs	r7, #1
 8002f0e:	2608      	movs	r6, #8
 8002f10:	a907      	add	r1, sp, #28
 8002f12:	486a      	ldr	r0, [pc, #424]	; (80030bc <main+0x268>)
 8002f14:	9607      	str	r6, [sp, #28]
 8002f16:	9708      	str	r7, [sp, #32]
 8002f18:	9409      	str	r4, [sp, #36]	; 0x24
 8002f1a:	940a      	str	r4, [sp, #40]	; 0x28
 8002f1c:	f7fe f910 	bl	8001140 <HAL_GPIO_Init>
 8002f20:	a907      	add	r1, sp, #28
 8002f22:	4867      	ldr	r0, [pc, #412]	; (80030c0 <main+0x26c>)
 8002f24:	9707      	str	r7, [sp, #28]
 8002f26:	f04f 0805 	mov.w	r8, #5
 8002f2a:	9708      	str	r7, [sp, #32]
 8002f2c:	9409      	str	r4, [sp, #36]	; 0x24
 8002f2e:	940a      	str	r4, [sp, #40]	; 0x28
 8002f30:	f7fe f906 	bl	8001140 <HAL_GPIO_Init>
 8002f34:	9607      	str	r6, [sp, #28]
 8002f36:	a907      	add	r1, sp, #28
 8002f38:	2602      	movs	r6, #2
 8002f3a:	4861      	ldr	r0, [pc, #388]	; (80030c0 <main+0x26c>)
 8002f3c:	9608      	str	r6, [sp, #32]
 8002f3e:	9409      	str	r4, [sp, #36]	; 0x24
 8002f40:	940a      	str	r4, [sp, #40]	; 0x28
 8002f42:	f8cd 802c 	str.w	r8, [sp, #44]	; 0x2c
 8002f46:	f7fe f8fb 	bl	8001140 <HAL_GPIO_Init>
 8002f4a:	a907      	add	r1, sp, #28
 8002f4c:	485e      	ldr	r0, [pc, #376]	; (80030c8 <main+0x274>)
 8002f4e:	9707      	str	r7, [sp, #28]
 8002f50:	f8cd 9020 	str.w	r9, [sp, #32]
 8002f54:	9409      	str	r4, [sp, #36]	; 0x24
 8002f56:	f7fe f8f3 	bl	8001140 <HAL_GPIO_Init>
 8002f5a:	23e0      	movs	r3, #224	; 0xe0
 8002f5c:	a907      	add	r1, sp, #28
 8002f5e:	485a      	ldr	r0, [pc, #360]	; (80030c8 <main+0x274>)
 8002f60:	9307      	str	r3, [sp, #28]
 8002f62:	9608      	str	r6, [sp, #32]
 8002f64:	9409      	str	r4, [sp, #36]	; 0x24
 8002f66:	940a      	str	r4, [sp, #40]	; 0x28
 8002f68:	f8cd 802c 	str.w	r8, [sp, #44]	; 0x2c
 8002f6c:	f7fe f8e8 	bl	8001140 <HAL_GPIO_Init>
 8002f70:	2304      	movs	r3, #4
 8002f72:	a907      	add	r1, sp, #28
 8002f74:	4855      	ldr	r0, [pc, #340]	; (80030cc <main+0x278>)
 8002f76:	9307      	str	r3, [sp, #28]
 8002f78:	9408      	str	r4, [sp, #32]
 8002f7a:	9409      	str	r4, [sp, #36]	; 0x24
 8002f7c:	f7fe f8e0 	bl	8001140 <HAL_GPIO_Init>
 8002f80:	f44f 6380 	mov.w	r3, #1024	; 0x400
 8002f84:	a907      	add	r1, sp, #28
 8002f86:	4851      	ldr	r0, [pc, #324]	; (80030cc <main+0x278>)
 8002f88:	9307      	str	r3, [sp, #28]
 8002f8a:	9608      	str	r6, [sp, #32]
 8002f8c:	9409      	str	r4, [sp, #36]	; 0x24
 8002f8e:	940a      	str	r4, [sp, #40]	; 0x28
 8002f90:	f8cd 802c 	str.w	r8, [sp, #44]	; 0x2c
 8002f94:	f7fe f8d4 	bl	8001140 <HAL_GPIO_Init>
 8002f98:	f24f 0310 	movw	r3, #61456	; 0xf010
 8002f9c:	a907      	add	r1, sp, #28
 8002f9e:	4849      	ldr	r0, [pc, #292]	; (80030c4 <main+0x270>)
 8002fa0:	9307      	str	r3, [sp, #28]
 8002fa2:	9708      	str	r7, [sp, #32]
 8002fa4:	9409      	str	r4, [sp, #36]	; 0x24
 8002fa6:	f44f 7700 	mov.w	r7, #512	; 0x200
 8002faa:	940a      	str	r4, [sp, #40]	; 0x28
 8002fac:	f7fe f8c8 	bl	8001140 <HAL_GPIO_Init>
 8002fb0:	a907      	add	r1, sp, #28
 8002fb2:	4845      	ldr	r0, [pc, #276]	; (80030c8 <main+0x274>)
 8002fb4:	9707      	str	r7, [sp, #28]
 8002fb6:	9408      	str	r4, [sp, #32]
 8002fb8:	9409      	str	r4, [sp, #36]	; 0x24
 8002fba:	f7fe f8c1 	bl	8001140 <HAL_GPIO_Init>
 8002fbe:	f44f 53e0 	mov.w	r3, #7168	; 0x1c00
 8002fc2:	9307      	str	r3, [sp, #28]
 8002fc4:	a907      	add	r1, sp, #28
 8002fc6:	230a      	movs	r3, #10
 8002fc8:	483f      	ldr	r0, [pc, #252]	; (80030c8 <main+0x274>)
 8002fca:	9608      	str	r6, [sp, #32]
 8002fcc:	930b      	str	r3, [sp, #44]	; 0x2c
 8002fce:	9409      	str	r4, [sp, #36]	; 0x24
 8002fd0:	940a      	str	r4, [sp, #40]	; 0x28
 8002fd2:	f7fe f8b5 	bl	8001140 <HAL_GPIO_Init>
 8002fd6:	2320      	movs	r3, #32
 8002fd8:	a907      	add	r1, sp, #28
 8002fda:	483a      	ldr	r0, [pc, #232]	; (80030c4 <main+0x270>)
 8002fdc:	9307      	str	r3, [sp, #28]
 8002fde:	9408      	str	r4, [sp, #32]
 8002fe0:	9409      	str	r4, [sp, #36]	; 0x24
 8002fe2:	f7fe f8ad 	bl	8001140 <HAL_GPIO_Init>
 8002fe6:	a907      	add	r1, sp, #28
 8002fe8:	4834      	ldr	r0, [pc, #208]	; (80030bc <main+0x268>)
 8002fea:	9607      	str	r6, [sp, #28]
 8002fec:	f8cd 9020 	str.w	r9, [sp, #32]
 8002ff0:	9409      	str	r4, [sp, #36]	; 0x24
 8002ff2:	f7fe f8a5 	bl	8001140 <HAL_GPIO_Init>
 8002ff6:	9407      	str	r4, [sp, #28]
 8002ff8:	6b2b      	ldr	r3, [r5, #48]	; 0x30
 8002ffa:	f443 1300 	orr.w	r3, r3, #2097152	; 0x200000
 8002ffe:	632b      	str	r3, [r5, #48]	; 0x30
 8003000:	6b2b      	ldr	r3, [r5, #48]	; 0x30
 8003002:	4d33      	ldr	r5, [pc, #204]	; (80030d0 <main+0x27c>)
 8003004:	f403 1300 	and.w	r3, r3, #2097152	; 0x200000
 8003008:	4621      	mov	r1, r4
 800300a:	4622      	mov	r2, r4
 800300c:	9307      	str	r3, [sp, #28]
 800300e:	2010      	movs	r0, #16
 8003010:	9b07      	ldr	r3, [sp, #28]
 8003012:	f7fd feb5 	bl	8000d80 <HAL_NVIC_SetPriority>
 8003016:	2010      	movs	r0, #16
 8003018:	f7fd fee6 	bl	8000de8 <HAL_NVIC_EnableIRQ>
 800301c:	4b2d      	ldr	r3, [pc, #180]	; (80030d4 <main+0x280>)
 800301e:	60ac      	str	r4, [r5, #8]
 8003020:	e885 0088 	stmia.w	r5, {r3, r7}
 8003024:	4628      	mov	r0, r5
 8003026:	f64b 3380 	movw	r3, #48000	; 0xbb80
 800302a:	616b      	str	r3, [r5, #20]
 800302c:	60ec      	str	r4, [r5, #12]
 800302e:	612f      	str	r7, [r5, #16]
 8003030:	61ac      	str	r4, [r5, #24]
 8003032:	61ec      	str	r4, [r5, #28]
 8003034:	622c      	str	r4, [r5, #32]
 8003036:	f7fe fd6d 	bl	8001b14 <HAL_I2S_Init>
 800303a:	4827      	ldr	r0, [pc, #156]	; (80030d8 <main+0x284>)
 800303c:	4a27      	ldr	r2, [pc, #156]	; (80030dc <main+0x288>)
 800303e:	4b28      	ldr	r3, [pc, #160]	; (80030e0 <main+0x28c>)
 8003040:	6084      	str	r4, [r0, #8]
 8003042:	e880 000c 	stmia.w	r0, {r2, r3}
 8003046:	f44f 4380 	mov.w	r3, #16384	; 0x4000
 800304a:	6103      	str	r3, [r0, #16]
 800304c:	60c4      	str	r4, [r0, #12]
 800304e:	6144      	str	r4, [r0, #20]
 8003050:	6184      	str	r4, [r0, #24]
 8003052:	61c4      	str	r4, [r0, #28]
 8003054:	6204      	str	r4, [r0, #32]
 8003056:	f7fe fa65 	bl	8001524 <HAL_I2C_Init>
 800305a:	4822      	ldr	r0, [pc, #136]	; (80030e4 <main+0x290>)
 800305c:	4922      	ldr	r1, [pc, #136]	; (80030e8 <main+0x294>)
 800305e:	6084      	str	r4, [r0, #8]
 8003060:	f647 2312 	movw	r3, #31250	; 0x7a12
 8003064:	e880 000a 	stmia.w	r0, {r1, r3}
 8003068:	230c      	movs	r3, #12
 800306a:	6143      	str	r3, [r0, #20]
 800306c:	60c4      	str	r4, [r0, #12]
 800306e:	6104      	str	r4, [r0, #16]
 8003070:	6184      	str	r4, [r0, #24]
 8003072:	61c4      	str	r4, [r0, #28]
 8003074:	f7ff fcba 	bl	80029ec <HAL_UART_Init>
 8003078:	f7ff fda6 	bl	8002bc8 <codec_ctrl_init>
 800307c:	4633      	mov	r3, r6
 800307e:	4a1b      	ldr	r2, [pc, #108]	; (80030ec <main+0x298>)
 8003080:	491b      	ldr	r1, [pc, #108]	; (80030f0 <main+0x29c>)
 8003082:	4e1c      	ldr	r6, [pc, #112]	; (80030f4 <main+0x2a0>)
 8003084:	4628      	mov	r0, r5
 8003086:	f7fe fe7d 	bl	8001d84 <HAL_I2SEx_TransmitReceive_DMA>
 800308a:	4b1b      	ldr	r3, [pc, #108]	; (80030f8 <main+0x2a4>)
 800308c:	4621      	mov	r1, r4
 800308e:	f64f 60ee 	movw	r0, #65262	; 0xfeee
 8003092:	220f      	movs	r2, #15
 8003094:	eb06 1504 	add.w	r5, r6, r4, lsl #4
 8003098:	3401      	adds	r4, #1
 800309a:	2c08      	cmp	r4, #8
 800309c:	60eb      	str	r3, [r5, #12]
 800309e:	7019      	strb	r1, [r3, #0]
 80030a0:	8059      	strh	r1, [r3, #2]
 80030a2:	8118      	strh	r0, [r3, #8]
 80030a4:	715a      	strb	r2, [r3, #5]
 80030a6:	711a      	strb	r2, [r3, #4]
 80030a8:	719a      	strb	r2, [r3, #6]
 80030aa:	f103 030a 	add.w	r3, r3, #10
 80030ae:	d1f1      	bne.n	8003094 <main+0x240>
 80030b0:	f000 f876 	bl	80031a0 <getMIDI>
 80030b4:	e7fc      	b.n	80030b0 <main+0x25c>
 80030b6:	bf00      	nop
 80030b8:	40023800 	.word	0x40023800
 80030bc:	40021000 	.word	0x40021000
 80030c0:	40020800 	.word	0x40020800
 80030c4:	40020c00 	.word	0x40020c00
 80030c8:	40020000 	.word	0x40020000
 80030cc:	40020400 	.word	0x40020400
 80030d0:	200001f0 	.word	0x200001f0
 80030d4:	40003c00 	.word	0x40003c00
 80030d8:	2000002c 	.word	0x2000002c
 80030dc:	40005400 	.word	0x40005400
 80030e0:	000186a0 	.word	0x000186a0
 80030e4:	20000160 	.word	0x20000160
 80030e8:	40004400 	.word	0x40004400
 80030ec:	20000242 	.word	0x20000242
 80030f0:	20000238 	.word	0x20000238
 80030f4:	200000e0 	.word	0x200000e0
 80030f8:	200001a0 	.word	0x200001a0
 80030fc:	10120000 	.word	0x10120000

08003100 <Error_Handler>:
 8003100:	4770      	bx	lr
	...

08003104 <readUserInput>:
 8003104:	b507      	push	{r0, r1, r2, lr}
 8003106:	f04f 33ff 	mov.w	r3, #4294967295	; 0xffffffff
 800310a:	2201      	movs	r2, #1
 800310c:	a901      	add	r1, sp, #4
 800310e:	4804      	ldr	r0, [pc, #16]	; (8003120 <readUserInput+0x1c>)
 8003110:	f7ff fc9a 	bl	8002a48 <HAL_UART_Receive>
 8003114:	f89d 0004 	ldrb.w	r0, [sp, #4]
 8003118:	b003      	add	sp, #12
 800311a:	f85d fb04 	ldr.w	pc, [sp], #4
 800311e:	bf00      	nop
 8003120:	20000160 	.word	0x20000160

08003124 <noteOff>:
 8003124:	b510      	push	{r4, lr}
 8003126:	4907      	ldr	r1, [pc, #28]	; (8003144 <noteOff+0x20>)
 8003128:	2300      	movs	r3, #0
 800312a:	eb01 1203 	add.w	r2, r1, r3, lsl #4
 800312e:	7994      	ldrb	r4, [r2, #6]
 8003130:	4284      	cmp	r4, r0
 8003132:	d103      	bne.n	800313c <noteOff+0x18>
 8003134:	68d3      	ldr	r3, [r2, #12]
 8003136:	2204      	movs	r2, #4
 8003138:	701a      	strb	r2, [r3, #0]
 800313a:	bd10      	pop	{r4, pc}
 800313c:	3301      	adds	r3, #1
 800313e:	2b08      	cmp	r3, #8
 8003140:	d1f3      	bne.n	800312a <noteOff+0x6>
 8003142:	bd10      	pop	{r4, pc}
 8003144:	200000e0 	.word	0x200000e0

08003148 <noteOn>:
 8003148:	4b13      	ldr	r3, [pc, #76]	; (8003198 <noteOn+0x50>)
 800314a:	b530      	push	{r4, r5, lr}
 800314c:	2400      	movs	r4, #0
 800314e:	eb03 1204 	add.w	r2, r3, r4, lsl #4
 8003152:	7995      	ldrb	r5, [r2, #6]
 8003154:	b96d      	cbnz	r5, 8003172 <noteOn+0x2a>
 8003156:	4b11      	ldr	r3, [pc, #68]	; (800319c <noteOn+0x54>)
 8003158:	7190      	strb	r0, [r2, #6]
 800315a:	5c5b      	ldrb	r3, [r3, r1]
 800315c:	8055      	strh	r5, [r2, #2]
 800315e:	ee07 3a90 	vmov	s15, r3
 8003162:	eefb 7aec 	vcvt.f32.u32	s15, s15, #7
 8003166:	68d3      	ldr	r3, [r2, #12]
 8003168:	edc2 7a02 	vstr	s15, [r2, #8]
 800316c:	2201      	movs	r2, #1
 800316e:	701a      	strb	r2, [r3, #0]
 8003170:	bd30      	pop	{r4, r5, pc}
 8003172:	3401      	adds	r4, #1
 8003174:	2c08      	cmp	r4, #8
 8003176:	d1ea      	bne.n	800314e <noteOn+0x6>
 8003178:	4a08      	ldr	r2, [pc, #32]	; (800319c <noteOn+0x54>)
 800317a:	f883 0076 	strb.w	r0, [r3, #118]	; 0x76
 800317e:	5c52      	ldrb	r2, [r2, r1]
 8003180:	ee07 2a90 	vmov	s15, r2
 8003184:	eefb 7aec 	vcvt.f32.u32	s15, s15, #7
 8003188:	2200      	movs	r2, #0
 800318a:	edc3 7a1e 	vstr	s15, [r3, #120]	; 0x78
 800318e:	f8a3 2072 	strh.w	r2, [r3, #114]	; 0x72
 8003192:	6fdb      	ldr	r3, [r3, #124]	; 0x7c
 8003194:	e7ea      	b.n	800316c <noteOn+0x24>
 8003196:	bf00      	nop
 8003198:	200000e0 	.word	0x200000e0
 800319c:	080035e4 	.word	0x080035e4

080031a0 <getMIDI>:
 80031a0:	b510      	push	{r4, lr}
 80031a2:	f7ff ffaf 	bl	8003104 <readUserInput>
 80031a6:	f000 00f0 	and.w	r0, r0, #240	; 0xf0
 80031aa:	2880      	cmp	r0, #128	; 0x80
 80031ac:	d105      	bne.n	80031ba <getMIDI+0x1a>
 80031ae:	f7ff ffa9 	bl	8003104 <readUserInput>
 80031b2:	e8bd 4010 	ldmia.w	sp!, {r4, lr}
 80031b6:	f7ff bfb5 	b.w	8003124 <noteOff>
 80031ba:	2890      	cmp	r0, #144	; 0x90
 80031bc:	d10c      	bne.n	80031d8 <getMIDI+0x38>
 80031be:	f7ff ffa1 	bl	8003104 <readUserInput>
 80031c2:	4604      	mov	r4, r0
 80031c4:	f7ff ff9e 	bl	8003104 <readUserInput>
 80031c8:	4601      	mov	r1, r0
 80031ca:	4620      	mov	r0, r4
 80031cc:	2900      	cmp	r1, #0
 80031ce:	d0f0      	beq.n	80031b2 <getMIDI+0x12>
 80031d0:	e8bd 4010 	ldmia.w	sp!, {r4, lr}
 80031d4:	f7ff bfb8 	b.w	8003148 <noteOn>
 80031d8:	bd10      	pop	{r4, pc}
	...

080031dc <updateOsc>:
 80031dc:	b084      	sub	sp, #16
 80031de:	e92d 4ff7 	stmdb	sp!, {r0, r1, r2, r4, r5, r6, r7, r8, r9, sl, fp, lr}
 80031e2:	ae0d      	add	r6, sp, #52	; 0x34
 80031e4:	e886 000e 	stmia.w	r6, {r1, r2, r3}
 80031e8:	9b10      	ldr	r3, [sp, #64]	; 0x40
 80031ea:	f89d 2044 	ldrb.w	r2, [sp, #68]	; 0x44
 80031ee:	781f      	ldrb	r7, [r3, #0]
 80031f0:	f8bd 5036 	ldrh.w	r5, [sp, #54]	; 0x36
 80031f4:	4682      	mov	sl, r0
 80031f6:	2f00      	cmp	r7, #0
 80031f8:	d05f      	beq.n	80032ba <updateOsc+0xde>
 80031fa:	4931      	ldr	r1, [pc, #196]	; (80032c0 <updateOsc+0xe4>)
 80031fc:	f89d 703a 	ldrb.w	r7, [sp, #58]	; 0x3a
 8003200:	f8bd 4038 	ldrh.w	r4, [sp, #56]	; 0x38
 8003204:	f831 b017 	ldrh.w	fp, [r1, r7, lsl #1]
 8003208:	eb0b 0105 	add.w	r1, fp, r5
 800320c:	f8bd 5048 	ldrh.w	r5, [sp, #72]	; 0x48
 8003210:	440d      	add	r5, r1
 8003212:	b2ad      	uxth	r5, r5
 8003214:	2a00      	cmp	r2, #0
 8003216:	d141      	bne.n	800329c <updateOsc+0xc0>
 8003218:	08a9      	lsrs	r1, r5, #2
 800321a:	4a2a      	ldr	r2, [pc, #168]	; (80032c4 <updateOsc+0xe8>)
 800321c:	f832 4011 	ldrh.w	r4, [r2, r1, lsl #1]
 8003220:	9301      	str	r3, [sp, #4]
 8003222:	4618      	mov	r0, r3
 8003224:	f7ff fc72 	bl	8002b0c <updateADSR>
 8003228:	f8bd 204c 	ldrh.w	r2, [sp, #76]	; 0x4c
 800322c:	ed9d 7a0f 	vldr	s14, [sp, #60]	; 0x3c
 8003230:	4414      	add	r4, r2
 8003232:	ee07 4a90 	vmov	s15, r4
 8003236:	eef8 7ae7 	vcvt.f32.s32	s15, s15
 800323a:	ee67 7a87 	vmul.f32	s15, s15, s14
 800323e:	ee17 0a90 	vmov	r0, s15
 8003242:	f7fd f925 	bl	8000490 <__aeabi_f2d>
 8003246:	9b01      	ldr	r3, [sp, #4]
 8003248:	4680      	mov	r8, r0
 800324a:	8858      	ldrh	r0, [r3, #2]
 800324c:	ee07 0a90 	vmov	s15, r0
 8003250:	eef8 7a67 	vcvt.f32.u32	s15, s15
 8003254:	4689      	mov	r9, r1
 8003256:	ee17 0a90 	vmov	r0, s15
 800325a:	f7fd f919 	bl	8000490 <__aeabi_f2d>
 800325e:	2200      	movs	r2, #0
 8003260:	4b19      	ldr	r3, [pc, #100]	; (80032c8 <updateOsc+0xec>)
 8003262:	f7fd fa93 	bl	800078c <__aeabi_ddiv>
 8003266:	4602      	mov	r2, r0
 8003268:	460b      	mov	r3, r1
 800326a:	4640      	mov	r0, r8
 800326c:	4649      	mov	r1, r9
 800326e:	f7fd f963 	bl	8000538 <__aeabi_dmul>
 8003272:	f7fd fb73 	bl	800095c <__aeabi_d2iz>
 8003276:	b280      	uxth	r0, r0
 8003278:	f8ad b034 	strh.w	fp, [sp, #52]	; 0x34
 800327c:	f8ad 5036 	strh.w	r5, [sp, #54]	; 0x36
 8003280:	f8ad 0038 	strh.w	r0, [sp, #56]	; 0x38
 8003284:	f88d 703a 	strb.w	r7, [sp, #58]	; 0x3a
 8003288:	e896 000f 	ldmia.w	r6, {r0, r1, r2, r3}
 800328c:	e88a 000f 	stmia.w	sl, {r0, r1, r2, r3}
 8003290:	4650      	mov	r0, sl
 8003292:	b003      	add	sp, #12
 8003294:	e8bd 4ff0 	ldmia.w	sp!, {r4, r5, r6, r7, r8, r9, sl, fp, lr}
 8003298:	b004      	add	sp, #16
 800329a:	4770      	bx	lr
 800329c:	2a01      	cmp	r2, #1
 800329e:	d108      	bne.n	80032b2 <updateOsc+0xd6>
 80032a0:	f647 74fe 	movw	r4, #32766	; 0x7ffe
 80032a4:	42a5      	cmp	r5, r4
 80032a6:	f04f 34ff 	mov.w	r4, #4294967295	; 0xffffffff
 80032aa:	bf98      	it	ls
 80032ac:	2400      	movls	r4, #0
 80032ae:	b2a4      	uxth	r4, r4
 80032b0:	e7b6      	b.n	8003220 <updateOsc+0x44>
 80032b2:	2a02      	cmp	r2, #2
 80032b4:	bf08      	it	eq
 80032b6:	462c      	moveq	r4, r5
 80032b8:	e7b2      	b.n	8003220 <updateOsc+0x44>
 80032ba:	4638      	mov	r0, r7
 80032bc:	46bb      	mov	fp, r7
 80032be:	e7db      	b.n	8003278 <updateOsc+0x9c>
 80032c0:	08003664 	.word	0x08003664
 80032c4:	08003764 	.word	0x08003764
 80032c8:	40efe000 	.word	0x40efe000

080032cc <HAL_MspInit>:
 80032cc:	b507      	push	{r0, r1, r2, lr}
 80032ce:	4b0e      	ldr	r3, [pc, #56]	; (8003308 <HAL_MspInit+0x3c>)
 80032d0:	2100      	movs	r1, #0
 80032d2:	9100      	str	r1, [sp, #0]
 80032d4:	6c5a      	ldr	r2, [r3, #68]	; 0x44
 80032d6:	f442 4280 	orr.w	r2, r2, #16384	; 0x4000
 80032da:	645a      	str	r2, [r3, #68]	; 0x44
 80032dc:	6c5a      	ldr	r2, [r3, #68]	; 0x44
 80032de:	f402 4280 	and.w	r2, r2, #16384	; 0x4000
 80032e2:	9200      	str	r2, [sp, #0]
 80032e4:	9a00      	ldr	r2, [sp, #0]
 80032e6:	9101      	str	r1, [sp, #4]
 80032e8:	6c1a      	ldr	r2, [r3, #64]	; 0x40
 80032ea:	f042 5280 	orr.w	r2, r2, #268435456	; 0x10000000
 80032ee:	641a      	str	r2, [r3, #64]	; 0x40
 80032f0:	6c1b      	ldr	r3, [r3, #64]	; 0x40
 80032f2:	f003 5380 	and.w	r3, r3, #268435456	; 0x10000000
 80032f6:	9301      	str	r3, [sp, #4]
 80032f8:	2007      	movs	r0, #7
 80032fa:	9b01      	ldr	r3, [sp, #4]
 80032fc:	f7fd fd2e 	bl	8000d5c <HAL_NVIC_SetPriorityGrouping>
 8003300:	b003      	add	sp, #12
 8003302:	f85d fb04 	ldr.w	pc, [sp], #4
 8003306:	bf00      	nop
 8003308:	40023800 	.word	0x40023800

0800330c <HAL_I2C_MspInit>:
 800330c:	b530      	push	{r4, r5, lr}
 800330e:	4604      	mov	r4, r0
 8003310:	b089      	sub	sp, #36	; 0x24
 8003312:	2214      	movs	r2, #20
 8003314:	2100      	movs	r1, #0
 8003316:	a803      	add	r0, sp, #12
 8003318:	f000 f94c 	bl	80035b4 <memset>
 800331c:	6822      	ldr	r2, [r4, #0]
 800331e:	4b14      	ldr	r3, [pc, #80]	; (8003370 <HAL_I2C_MspInit+0x64>)
 8003320:	429a      	cmp	r2, r3
 8003322:	d122      	bne.n	800336a <HAL_I2C_MspInit+0x5e>
 8003324:	4c13      	ldr	r4, [pc, #76]	; (8003374 <HAL_I2C_MspInit+0x68>)
 8003326:	4814      	ldr	r0, [pc, #80]	; (8003378 <HAL_I2C_MspInit+0x6c>)
 8003328:	2500      	movs	r5, #0
 800332a:	9501      	str	r5, [sp, #4]
 800332c:	6b23      	ldr	r3, [r4, #48]	; 0x30
 800332e:	f043 0302 	orr.w	r3, r3, #2
 8003332:	6323      	str	r3, [r4, #48]	; 0x30
 8003334:	6b23      	ldr	r3, [r4, #48]	; 0x30
 8003336:	f003 0302 	and.w	r3, r3, #2
 800333a:	9301      	str	r3, [sp, #4]
 800333c:	9b01      	ldr	r3, [sp, #4]
 800333e:	f44f 7310 	mov.w	r3, #576	; 0x240
 8003342:	9303      	str	r3, [sp, #12]
 8003344:	2312      	movs	r3, #18
 8003346:	9304      	str	r3, [sp, #16]
 8003348:	2301      	movs	r3, #1
 800334a:	9305      	str	r3, [sp, #20]
 800334c:	a903      	add	r1, sp, #12
 800334e:	2304      	movs	r3, #4
 8003350:	9307      	str	r3, [sp, #28]
 8003352:	f7fd fef5 	bl	8001140 <HAL_GPIO_Init>
 8003356:	9502      	str	r5, [sp, #8]
 8003358:	6c23      	ldr	r3, [r4, #64]	; 0x40
 800335a:	f443 1300 	orr.w	r3, r3, #2097152	; 0x200000
 800335e:	6423      	str	r3, [r4, #64]	; 0x40
 8003360:	6c23      	ldr	r3, [r4, #64]	; 0x40
 8003362:	f403 1300 	and.w	r3, r3, #2097152	; 0x200000
 8003366:	9302      	str	r3, [sp, #8]
 8003368:	9b02      	ldr	r3, [sp, #8]
 800336a:	b009      	add	sp, #36	; 0x24
 800336c:	bd30      	pop	{r4, r5, pc}
 800336e:	bf00      	nop
 8003370:	40005400 	.word	0x40005400
 8003374:	40023800 	.word	0x40023800
 8003378:	40020400 	.word	0x40020400

0800337c <HAL_I2S_MspInit>:
 800337c:	b5f0      	push	{r4, r5, r6, r7, lr}
 800337e:	4606      	mov	r6, r0
 8003380:	b089      	sub	sp, #36	; 0x24
 8003382:	2214      	movs	r2, #20
 8003384:	2100      	movs	r1, #0
 8003386:	a803      	add	r0, sp, #12
 8003388:	f000 f914 	bl	80035b4 <memset>
 800338c:	6832      	ldr	r2, [r6, #0]
 800338e:	4b32      	ldr	r3, [pc, #200]	; (8003458 <HAL_I2S_MspInit+0xdc>)
 8003390:	429a      	cmp	r2, r3
 8003392:	d15e      	bne.n	8003452 <HAL_I2S_MspInit+0xd6>
 8003394:	2500      	movs	r5, #0
 8003396:	f503 33fe 	add.w	r3, r3, #130048	; 0x1fc00
 800339a:	9500      	str	r5, [sp, #0]
 800339c:	6c1a      	ldr	r2, [r3, #64]	; 0x40
 800339e:	482f      	ldr	r0, [pc, #188]	; (800345c <HAL_I2S_MspInit+0xe0>)
 80033a0:	f442 4200 	orr.w	r2, r2, #32768	; 0x8000
 80033a4:	641a      	str	r2, [r3, #64]	; 0x40
 80033a6:	6c1a      	ldr	r2, [r3, #64]	; 0x40
 80033a8:	f402 4200 	and.w	r2, r2, #32768	; 0x8000
 80033ac:	9200      	str	r2, [sp, #0]
 80033ae:	9a00      	ldr	r2, [sp, #0]
 80033b0:	9501      	str	r5, [sp, #4]
 80033b2:	6b1a      	ldr	r2, [r3, #48]	; 0x30
 80033b4:	f042 0201 	orr.w	r2, r2, #1
 80033b8:	631a      	str	r2, [r3, #48]	; 0x30
 80033ba:	6b1a      	ldr	r2, [r3, #48]	; 0x30
 80033bc:	f002 0201 	and.w	r2, r2, #1
 80033c0:	9201      	str	r2, [sp, #4]
 80033c2:	9a01      	ldr	r2, [sp, #4]
 80033c4:	9502      	str	r5, [sp, #8]
 80033c6:	6b1a      	ldr	r2, [r3, #48]	; 0x30
 80033c8:	f042 0204 	orr.w	r2, r2, #4
 80033cc:	631a      	str	r2, [r3, #48]	; 0x30
 80033ce:	6b1b      	ldr	r3, [r3, #48]	; 0x30
 80033d0:	f003 0304 	and.w	r3, r3, #4
 80033d4:	9302      	str	r3, [sp, #8]
 80033d6:	2402      	movs	r4, #2
 80033d8:	2706      	movs	r7, #6
 80033da:	9b02      	ldr	r3, [sp, #8]
 80033dc:	9404      	str	r4, [sp, #16]
 80033de:	2310      	movs	r3, #16
 80033e0:	a903      	add	r1, sp, #12
 80033e2:	9303      	str	r3, [sp, #12]
 80033e4:	9707      	str	r7, [sp, #28]
 80033e6:	f7fd feab 	bl	8001140 <HAL_GPIO_Init>
 80033ea:	f44f 53a4 	mov.w	r3, #5248	; 0x1480
 80033ee:	a903      	add	r1, sp, #12
 80033f0:	481b      	ldr	r0, [pc, #108]	; (8003460 <HAL_I2S_MspInit+0xe4>)
 80033f2:	9303      	str	r3, [sp, #12]
 80033f4:	9404      	str	r4, [sp, #16]
 80033f6:	9707      	str	r7, [sp, #28]
 80033f8:	9505      	str	r5, [sp, #20]
 80033fa:	f44f 6700 	mov.w	r7, #2048	; 0x800
 80033fe:	9506      	str	r5, [sp, #24]
 8003400:	f7fd fe9e 	bl	8001140 <HAL_GPIO_Init>
 8003404:	2305      	movs	r3, #5
 8003406:	4816      	ldr	r0, [pc, #88]	; (8003460 <HAL_I2S_MspInit+0xe4>)
 8003408:	9404      	str	r4, [sp, #16]
 800340a:	a903      	add	r1, sp, #12
 800340c:	4c15      	ldr	r4, [pc, #84]	; (8003464 <HAL_I2S_MspInit+0xe8>)
 800340e:	9307      	str	r3, [sp, #28]
 8003410:	9703      	str	r7, [sp, #12]
 8003412:	9505      	str	r5, [sp, #20]
 8003414:	9506      	str	r5, [sp, #24]
 8003416:	f7fd fe93 	bl	8001140 <HAL_GPIO_Init>
 800341a:	4b13      	ldr	r3, [pc, #76]	; (8003468 <HAL_I2S_MspInit+0xec>)
 800341c:	60e5      	str	r5, [r4, #12]
 800341e:	e884 0028 	stmia.w	r4, {r3, r5}
 8003422:	2340      	movs	r3, #64	; 0x40
 8003424:	60a3      	str	r3, [r4, #8]
 8003426:	f44f 6380 	mov.w	r3, #1024	; 0x400
 800342a:	6123      	str	r3, [r4, #16]
 800342c:	f44f 5300 	mov.w	r3, #8192	; 0x2000
 8003430:	61a3      	str	r3, [r4, #24]
 8003432:	f44f 7380 	mov.w	r3, #256	; 0x100
 8003436:	61e3      	str	r3, [r4, #28]
 8003438:	4620      	mov	r0, r4
 800343a:	f44f 3300 	mov.w	r3, #131072	; 0x20000
 800343e:	6167      	str	r7, [r4, #20]
 8003440:	6223      	str	r3, [r4, #32]
 8003442:	6265      	str	r5, [r4, #36]	; 0x24
 8003444:	f7fd fd0a 	bl	8000e5c <HAL_DMA_Init>
 8003448:	b108      	cbz	r0, 800344e <HAL_I2S_MspInit+0xd2>
 800344a:	f7ff fe59 	bl	8003100 <Error_Handler>
 800344e:	63b4      	str	r4, [r6, #56]	; 0x38
 8003450:	63a6      	str	r6, [r4, #56]	; 0x38
 8003452:	b009      	add	sp, #36	; 0x24
 8003454:	bdf0      	pop	{r4, r5, r6, r7, pc}
 8003456:	bf00      	nop
 8003458:	40003c00 	.word	0x40003c00
 800345c:	40020000 	.word	0x40020000
 8003460:	40020800 	.word	0x40020800
 8003464:	20000080 	.word	0x20000080
 8003468:	40026088 	.word	0x40026088

0800346c <HAL_UART_MspInit>:
 800346c:	b510      	push	{r4, lr}
 800346e:	4604      	mov	r4, r0
 8003470:	b088      	sub	sp, #32
 8003472:	2214      	movs	r2, #20
 8003474:	2100      	movs	r1, #0
 8003476:	a803      	add	r0, sp, #12
 8003478:	f000 f89c 	bl	80035b4 <memset>
 800347c:	6822      	ldr	r2, [r4, #0]
 800347e:	4b15      	ldr	r3, [pc, #84]	; (80034d4 <HAL_UART_MspInit+0x68>)
 8003480:	429a      	cmp	r2, r3
 8003482:	d124      	bne.n	80034ce <HAL_UART_MspInit+0x62>
 8003484:	f503 33fa 	add.w	r3, r3, #128000	; 0x1f400
 8003488:	2100      	movs	r1, #0
 800348a:	9101      	str	r1, [sp, #4]
 800348c:	6c1a      	ldr	r2, [r3, #64]	; 0x40
 800348e:	4812      	ldr	r0, [pc, #72]	; (80034d8 <HAL_UART_MspInit+0x6c>)
 8003490:	f442 3200 	orr.w	r2, r2, #131072	; 0x20000
 8003494:	641a      	str	r2, [r3, #64]	; 0x40
 8003496:	6c1a      	ldr	r2, [r3, #64]	; 0x40
 8003498:	f402 3200 	and.w	r2, r2, #131072	; 0x20000
 800349c:	9201      	str	r2, [sp, #4]
 800349e:	9a01      	ldr	r2, [sp, #4]
 80034a0:	9102      	str	r1, [sp, #8]
 80034a2:	6b1a      	ldr	r2, [r3, #48]	; 0x30
 80034a4:	f042 0201 	orr.w	r2, r2, #1
 80034a8:	631a      	str	r2, [r3, #48]	; 0x30
 80034aa:	6b1b      	ldr	r3, [r3, #48]	; 0x30
 80034ac:	f003 0301 	and.w	r3, r3, #1
 80034b0:	9302      	str	r3, [sp, #8]
 80034b2:	9b02      	ldr	r3, [sp, #8]
 80034b4:	230c      	movs	r3, #12
 80034b6:	9303      	str	r3, [sp, #12]
 80034b8:	2302      	movs	r3, #2
 80034ba:	9304      	str	r3, [sp, #16]
 80034bc:	2301      	movs	r3, #1
 80034be:	9305      	str	r3, [sp, #20]
 80034c0:	2303      	movs	r3, #3
 80034c2:	9306      	str	r3, [sp, #24]
 80034c4:	a903      	add	r1, sp, #12
 80034c6:	2307      	movs	r3, #7
 80034c8:	9307      	str	r3, [sp, #28]
 80034ca:	f7fd fe39 	bl	8001140 <HAL_GPIO_Init>
 80034ce:	b008      	add	sp, #32
 80034d0:	bd10      	pop	{r4, pc}
 80034d2:	bf00      	nop
 80034d4:	40004400 	.word	0x40004400
 80034d8:	40020000 	.word	0x40020000

080034dc <NMI_Handler>:
 80034dc:	4770      	bx	lr

080034de <HardFault_Handler>:
 80034de:	e7fe      	b.n	80034de <HardFault_Handler>

080034e0 <MemManage_Handler>:
 80034e0:	e7fe      	b.n	80034e0 <MemManage_Handler>

080034e2 <BusFault_Handler>:
 80034e2:	e7fe      	b.n	80034e2 <BusFault_Handler>

080034e4 <UsageFault_Handler>:
 80034e4:	e7fe      	b.n	80034e4 <UsageFault_Handler>

080034e6 <SVC_Handler>:
 80034e6:	4770      	bx	lr

080034e8 <DebugMon_Handler>:
 80034e8:	4770      	bx	lr

080034ea <PendSV_Handler>:
 80034ea:	4770      	bx	lr

080034ec <SysTick_Handler>:
 80034ec:	f7fd bc24 	b.w	8000d38 <HAL_IncTick>

080034f0 <DMA1_Stream5_IRQHandler>:
 80034f0:	4801      	ldr	r0, [pc, #4]	; (80034f8 <DMA1_Stream5_IRQHandler+0x8>)
 80034f2:	f7fd bd6b 	b.w	8000fcc <HAL_DMA_IRQHandler>
 80034f6:	bf00      	nop
 80034f8:	20000080 	.word	0x20000080

080034fc <SystemInit>:
 80034fc:	4b05      	ldr	r3, [pc, #20]	; (8003514 <SystemInit+0x18>)
 80034fe:	f8d3 2088 	ldr.w	r2, [r3, #136]	; 0x88
 8003502:	f442 0270 	orr.w	r2, r2, #15728640	; 0xf00000
 8003506:	f8c3 2088 	str.w	r2, [r3, #136]	; 0x88
 800350a:	f04f 6200 	mov.w	r2, #134217728	; 0x8000000
 800350e:	609a      	str	r2, [r3, #8]
 8003510:	4770      	bx	lr
 8003512:	bf00      	nop
 8003514:	e000ed00 	.word	0xe000ed00

08003518 <Reset_Handler>:
 8003518:	f8df d034 	ldr.w	sp, [pc, #52]	; 8003550 <LoopFillZerobss+0x14>
 800351c:	2100      	movs	r1, #0
 800351e:	e003      	b.n	8003528 <LoopCopyDataInit>

08003520 <CopyDataInit>:
 8003520:	4b0c      	ldr	r3, [pc, #48]	; (8003554 <LoopFillZerobss+0x18>)
 8003522:	585b      	ldr	r3, [r3, r1]
 8003524:	5043      	str	r3, [r0, r1]
 8003526:	3104      	adds	r1, #4

08003528 <LoopCopyDataInit>:
 8003528:	480b      	ldr	r0, [pc, #44]	; (8003558 <LoopFillZerobss+0x1c>)
 800352a:	4b0c      	ldr	r3, [pc, #48]	; (800355c <LoopFillZerobss+0x20>)
 800352c:	1842      	adds	r2, r0, r1
 800352e:	429a      	cmp	r2, r3
 8003530:	d3f6      	bcc.n	8003520 <CopyDataInit>
 8003532:	4a0b      	ldr	r2, [pc, #44]	; (8003560 <LoopFillZerobss+0x24>)
 8003534:	e002      	b.n	800353c <LoopFillZerobss>

08003536 <FillZerobss>:
 8003536:	2300      	movs	r3, #0
 8003538:	f842 3b04 	str.w	r3, [r2], #4

0800353c <LoopFillZerobss>:
 800353c:	4b09      	ldr	r3, [pc, #36]	; (8003564 <LoopFillZerobss+0x28>)
 800353e:	429a      	cmp	r2, r3
 8003540:	d3f9      	bcc.n	8003536 <FillZerobss>
 8003542:	f7ff ffdb 	bl	80034fc <SystemInit>
 8003546:	f000 f811 	bl	800356c <__libc_init_array>
 800354a:	f7ff fc83 	bl	8002e54 <main>
 800354e:	4770      	bx	lr
 8003550:	20020000 	.word	0x20020000
 8003554:	0800b78c 	.word	0x0800b78c
 8003558:	20000000 	.word	0x20000000
 800355c:	2000000c 	.word	0x2000000c
 8003560:	2000000c 	.word	0x2000000c
 8003564:	2000024c 	.word	0x2000024c

08003568 <ADC_IRQHandler>:
 8003568:	e7fe      	b.n	8003568 <ADC_IRQHandler>
	...

0800356c <__libc_init_array>:
 800356c:	b570      	push	{r4, r5, r6, lr}
 800356e:	4e0d      	ldr	r6, [pc, #52]	; (80035a4 <__libc_init_array+0x38>)
 8003570:	4c0d      	ldr	r4, [pc, #52]	; (80035a8 <__libc_init_array+0x3c>)
 8003572:	1ba4      	subs	r4, r4, r6
 8003574:	10a4      	asrs	r4, r4, #2
 8003576:	2500      	movs	r5, #0
 8003578:	42a5      	cmp	r5, r4
 800357a:	d109      	bne.n	8003590 <__libc_init_array+0x24>
 800357c:	4e0b      	ldr	r6, [pc, #44]	; (80035ac <__libc_init_array+0x40>)
 800357e:	4c0c      	ldr	r4, [pc, #48]	; (80035b0 <__libc_init_array+0x44>)
 8003580:	f000 f820 	bl	80035c4 <_init>
 8003584:	1ba4      	subs	r4, r4, r6
 8003586:	10a4      	asrs	r4, r4, #2
 8003588:	2500      	movs	r5, #0
 800358a:	42a5      	cmp	r5, r4
 800358c:	d105      	bne.n	800359a <__libc_init_array+0x2e>
 800358e:	bd70      	pop	{r4, r5, r6, pc}
 8003590:	f856 3025 	ldr.w	r3, [r6, r5, lsl #2]
 8003594:	4798      	blx	r3
 8003596:	3501      	adds	r5, #1
 8003598:	e7ee      	b.n	8003578 <__libc_init_array+0xc>
 800359a:	f856 3025 	ldr.w	r3, [r6, r5, lsl #2]
 800359e:	4798      	blx	r3
 80035a0:	3501      	adds	r5, #1
 80035a2:	e7f2      	b.n	800358a <__libc_init_array+0x1e>
 80035a4:	0800b784 	.word	0x0800b784
 80035a8:	0800b784 	.word	0x0800b784
 80035ac:	0800b784 	.word	0x0800b784
 80035b0:	0800b788 	.word	0x0800b788

080035b4 <memset>:
 80035b4:	4402      	add	r2, r0
 80035b6:	4603      	mov	r3, r0
 80035b8:	4293      	cmp	r3, r2
 80035ba:	d100      	bne.n	80035be <memset+0xa>
 80035bc:	4770      	bx	lr
 80035be:	f803 1b01 	strb.w	r1, [r3], #1
 80035c2:	e7f9      	b.n	80035b8 <memset+0x4>

080035c4 <_init>:
 80035c4:	b5f8      	push	{r3, r4, r5, r6, r7, lr}
 80035c6:	bf00      	nop
 80035c8:	bcf8      	pop	{r3, r4, r5, r6, r7}
 80035ca:	bc08      	pop	{r3}
 80035cc:	469e      	mov	lr, r3
 80035ce:	4770      	bx	lr

080035d0 <_fini>:
 80035d0:	b5f8      	push	{r3, r4, r5, r6, r7, lr}
 80035d2:	bf00      	nop
 80035d4:	bcf8      	pop	{r3, r4, r5, r6, r7}
 80035d6:	bc08      	pop	{r3}
 80035d8:	469e      	mov	lr, r3
 80035da:	4770      	bx	lr
